(imatplotlib.font_manager
FontManager
p1
(dp2
S'afm_lookup_cache'
p3
(dp4
sS'ttflist'
p5
(lp6
ccopy_reg
_reconstructor
p7
(cmatplotlib.font_manager
FontEntry
p8
c__builtin__
object
p9
NtRp10
(dp11
S'style'
p12
S'normal'
p13
sS'name'
p14
S'cmb10'
p15
sS'weight'
p16
I400
sS'stretch'
p17
g13
sS'variant'
p18
g13
sS'fname'
p19
S'/usr/share/matplotlib/mpl-data/fonts/ttf/cmb10.ttf'
p20
sS'size'
p21
S'scalable'
p22
sbag7
(g8
g9
NtRp23
(dp24
g12
g13
sg14
S'cmex10'
p25
sg16
I400
sg17
g13
sg18
g13
sg19
S'/usr/share/matplotlib/mpl-data/fonts/ttf/cmex10.ttf'
p26
sg21
g22
sbag7
(g8
g9
NtRp27
(dp28
g12
S'italic'
p29
sg14
S'STIXNonUnicode'
p30
sg16
I400
sg17
g13
sg18
g13
sg19
S'/usr/share/matplotlib/mpl-data/fonts/ttf/STIXNonUniIta.ttf'
p31
sg21
g22
sbag7
(g8
g9
NtRp32
(dp33
g12
g13
sg14
S'STIXSizeOneSym'
p34
sg16
I400
sg17
g13
sg18
g13
sg19
S'/usr/share/matplotlib/mpl-data/fonts/ttf/STIXSizOneSymReg.ttf'
p35
sg21
g22
sbag7
(g8
g9
NtRp36
(dp37
g12
g13
sg14
S'STIXSizeThreeSym'
p38
sg16
I400
sg17
g13
sg18
g13
sg19
S'/usr/share/matplotlib/mpl-data/fonts/ttf/STIXSizThreeSymReg.ttf'
p39
sg21
g22
sbag7
(g8
g9
NtRp40
(dp41
g12
g13
sg14
S'STIXSizeTwoSym'
p42
sg16
I700
sg17
g13
sg18
g13
sg19
S'/usr/share/matplotlib/mpl-data/fonts/ttf/STIXSizTwoSymBol.ttf'
p43
sg21
g22
sbag7
(g8
g9
NtRp44
(dp45
g12
g13
sg14
S'cmtt10'
p46
sg16
I400
sg17
g13
sg18
g13
sg19
S'/usr/share/matplotlib/mpl-data/fonts/ttf/cmtt10.ttf'
p47
sg21
g22
sbag7
(g8
g9
NtRp48
(dp49
g12
g13
sg14
S'STIXGeneral'
p50
sg16
I400
sg17
g13
sg18
g13
sg19
S'/usr/share/matplotlib/mpl-data/fonts/ttf/STIXGeneral.ttf'
p51
sg21
g22
sbag7
(g8
g9
NtRp52
(dp53
g12
g29
sg14
S'STIXNonUnicode'
p54
sg16
I700
sg17
g13
sg18
g13
sg19
S'/usr/share/matplotlib/mpl-data/fonts/ttf/STIXNonUniBolIta.ttf'
p55
sg21
g22
sbag7
(g8
g9
NtRp56
(dp57
g12
g13
sg14
S'STIXNonUnicode'
p58
sg16
I400
sg17
g13
sg18
g13
sg19
S'/usr/share/matplotlib/mpl-data/fonts/ttf/STIXNonUni.ttf'
p59
sg21
g22
sbag7
(g8
g9
NtRp60
(dp61
g12
g13
sg14
S'STIXSizeFiveSym'
p62
sg16
I400
sg17
g13
sg18
g13
sg19
S'/usr/share/matplotlib/mpl-data/fonts/ttf/STIXSizFiveSymReg.ttf'
p63
sg21
g22
sbag7
(g8
g9
NtRp64
(dp65
g12
g13
sg14
S'STIXSizeOneSym'
p66
sg16
I700
sg17
g13
sg18
g13
sg19
S'/usr/share/matplotlib/mpl-data/fonts/ttf/STIXSizOneSymBol.ttf'
p67
sg21
g22
sbag7
(g8
g9
NtRp68
(dp69
g12
g13
sg14
S'STIXGeneral'
p70
sg16
I700
sg17
g13
sg18
g13
sg19
S'/usr/share/matplotlib/mpl-data/fonts/ttf/STIXGeneralBol.ttf'
p71
sg21
g22
sbag7
(g8
g9
NtRp72
(dp73
g12
g13
sg14
S'cmr10'
p74
sg16
I400
sg17
g13
sg18
g13
sg19
S'/usr/share/matplotlib/mpl-data/fonts/ttf/cmr10.ttf'
p75
sg21
g22
sbag7
(g8
g9
NtRp76
(dp77
g12
g13
sg14
S'STIXSizeTwoSym'
p78
sg16
I400
sg17
g13
sg18
g13
sg19
S'/usr/share/matplotlib/mpl-data/fonts/ttf/STIXSizTwoSymReg.ttf'
p79
sg21
g22
sbag7
(g8
g9
NtRp80
(dp81
g12
g13
sg14
S'STIXSizeFourSym'
p82
sg16
I400
sg17
g13
sg18
g13
sg19
S'/usr/share/matplotlib/mpl-data/fonts/ttf/STIXSizFourSymReg.ttf'
p83
sg21
g22
sbag7
(g8
g9
NtRp84
(dp85
g12
g13
sg14
S'cmsy10'
p86
sg16
I400
sg17
g13
sg18
g13
sg19
S'/usr/share/matplotlib/mpl-data/fonts/ttf/cmsy10.ttf'
p87
sg21
g22
sbag7
(g8
g9
NtRp88
(dp89
g12
g13
sg14
S'STIXSizeThreeSym'
p90
sg16
I700
sg17
g13
sg18
g13
sg19
S'/usr/share/matplotlib/mpl-data/fonts/ttf/STIXSizThreeSymBol.ttf'
p91
sg21
g22
sbag7
(g8
g9
NtRp92
(dp93
g12
g13
sg14
S'cmss10'
p94
sg16
I400
sg17
g13
sg18
g13
sg19
S'/usr/share/matplotlib/mpl-data/fonts/ttf/cmss10.ttf'
p95
sg21
g22
sbag7
(g8
g9
NtRp96
(dp97
g12
g13
sg14
S'STIXSizeFourSym'
p98
sg16
I700
sg17
g13
sg18
g13
sg19
S'/usr/share/matplotlib/mpl-data/fonts/ttf/STIXSizFourSymBol.ttf'
p99
sg21
g22
sbag7
(g8
g9
NtRp100
(dp101
g12
g29
sg14
S'STIXGeneral'
p102
sg16
I400
sg17
g13
sg18
g13
sg19
S'/usr/share/matplotlib/mpl-data/fonts/ttf/STIXGeneralItalic.ttf'
p103
sg21
g22
sbag7
(g8
g9
NtRp104
(dp105
g12
g13
sg14
S'cmmi10'
p106
sg16
I400
sg17
g13
sg18
g13
sg19
S'/usr/share/matplotlib/mpl-data/fonts/ttf/cmmi10.ttf'
p107
sg21
g22
sbag7
(g8
g9
NtRp108
(dp109
g12
g13
sg14
S'STIXNonUnicode'
p110
sg16
I700
sg17
g13
sg18
g13
sg19
S'/usr/share/matplotlib/mpl-data/fonts/ttf/STIXNonUniBol.ttf'
p111
sg21
g22
sbag7
(g8
g9
NtRp112
(dp113
g12
g29
sg14
S'STIXGeneral'
p114
sg16
I700
sg17
g13
sg18
g13
sg19
S'/usr/share/matplotlib/mpl-data/fonts/ttf/STIXGeneralBolIta.ttf'
p115
sg21
g22
sbag7
(g8
g9
NtRp116
(dp117
g12
g13
sg14
S'KacstTitle'
p118
sg16
I400
sg17
g13
sg18
g13
sg19
S'/usr/share/fonts/truetype/kacst/KacstTitle.ttf'
p119
sg21
g22
sbag7
(g8
g9
NtRp120
(dp121
g12
S'oblique'
p122
sg14
S'Tlwg Typo'
p123
sg16
I400
sg17
g13
sg18
g13
sg19
S'/usr/share/fonts/truetype/tlwg/TlwgTypo-Oblique.ttf'
p124
sg21
g22
sbag7
(g8
g9
NtRp125
(dp126
g12
g13
sg14
S'Mallige'
p127
sg16
I700
sg17
g13
sg18
g13
sg19
S'/usr/share/fonts/truetype/ttf-indic-fonts-core/Malige-b.ttf'
p128
sg21
g22
sbag7
(g8
g9
NtRp129
(dp130
g12
g13
sg14
S'Umpush'
p131
sg16
I400
sg17
g13
sg18
g13
sg19
S'/usr/share/fonts/truetype/tlwg/Umpush.ttf'
p132
sg21
g22
sbag7
(g8
g9
NtRp133
(dp134
g12
g13
sg14
S'Garuda'
p135
sg16
I700
sg17
g13
sg18
g13
sg19
S'/usr/share/fonts/truetype/tlwg/Garuda-Bold.ttf'
p136
sg21
g22
sbag7
(g8
g9
NtRp137
(dp138
g12
g122
sg14
S'Tlwg Typist'
p139
sg16
I700
sg17
g13
sg18
g13
sg19
S'/usr/share/fonts/truetype/tlwg/TlwgTypist-BoldOblique.ttf'
p140
sg21
g22
sbag7
(g8
g9
NtRp141
(dp142
g12
g29
sg14
S'rsfs10'
p143
sg16
I400
sg17
g13
sg18
g13
sg19
S'/usr/share/fonts/truetype/ttf-lyx/rsfs10.ttf'
p144
sg21
g22
sbag7
(g8
g9
NtRp145
(dp146
g12
g122
sg14
S'Loma'
p147
sg16
I400
sg17
g13
sg18
g13
sg19
S'/usr/share/fonts/truetype/tlwg/Loma-Oblique.ttf'
p148
sg21
g22
sbag7
(g8
g9
NtRp149
(dp150
g12
g122
sg14
S'Norasi'
p151
sg16
I400
sg17
g13
sg18
g13
sg19
S'/usr/share/fonts/truetype/tlwg/Norasi-Oblique.ttf'
p152
sg21
g22
sbag7
(g8
g9
NtRp153
(dp154
g12
g13
sg14
S'DejaVu Sans Mono'
p155
sg16
I400
sg17
g13
sg18
g13
sg19
S'/usr/share/fonts/truetype/ttf-dejavu/DejaVuSansMono.ttf'
p156
sg21
g22
sbag7
(g8
g9
NtRp157
(dp158
g12
g13
sg14
S'Lohit Punjabi'
p159
sg16
I400
sg17
g13
sg18
g13
sg19
S'/usr/share/fonts/truetype/ttf-punjabi-fonts/lohit_pa.ttf'
p160
sg21
g22
sbag7
(g8
g9
NtRp161
(dp162
g12
g13
sg14
S'Meera'
p163
sg16
I400
sg17
g13
sg18
g13
sg19
S'/usr/share/fonts/truetype/ttf-indic-fonts-core/Meera_04.ttf'
p164
sg21
g22
sbag7
(g8
g9
NtRp165
(dp166
g12
g13
sg14
S'TakaoPGothic'
p167
sg16
I400
sg17
g13
sg18
g13
sg19
S'/usr/share/fonts/truetype/fonts-japanese-gothic.ttf'
p168
sg21
g22
sbag7
(g8
g9
NtRp169
(dp170
g12
g13
sg14
S'Liberation Mono'
p171
sg16
I700
sg17
g13
sg18
g13
sg19
S'/usr/share/fonts/truetype/liberation/LiberationMono-Bold.ttf'
p172
sg21
g22
sbag7
(g8
g9
NtRp173
(dp174
g12
g122
sg14
S'Umpush'
p175
sg16
I200
sg17
g13
sg18
g13
sg19
S'/usr/share/fonts/truetype/tlwg/Umpush-LightOblique.ttf'
p176
sg21
g22
sbag7
(g8
g9
NtRp177
(dp178
g12
g13
sg14
S'FreeSerif'
p179
sg16
I700
sg17
g13
sg18
g13
sg19
S'/usr/share/fonts/truetype/freefont/FreeSerifBold.ttf'
p180
sg21
g22
sbag7
(g8
g9
NtRp181
(dp182
g12
g122
sg14
S'FreeMono'
p183
sg16
I700
sg17
g13
sg18
g13
sg19
S'/usr/share/fonts/truetype/freefont/FreeMonoBoldOblique.ttf'
p184
sg21
g22
sbag7
(g8
g9
NtRp185
(dp186
g12
g13
sg14
S'Tlwg Typo'
p187
sg16
I400
sg17
g13
sg18
g13
sg19
S'/usr/share/fonts/truetype/tlwg/TlwgTypo.ttf'
p188
sg21
g22
sbag7
(g8
g9
NtRp189
(dp190
g12
g13
sg14
S'GFS Solomos'
p191
sg16
I400
sg17
g13
sg18
g13
sg19
S'/usr/share/fonts/truetype/solomos/GFSSolomos.otf'
p192
sg21
g22
sbag7
(g8
g9
NtRp193
(dp194
g12
g29
sg14
S'GFS Didot'
p195
sg16
I700
sg17
g13
sg18
g13
sg19
S'/usr/share/fonts/truetype/didot/GFSDidotBoldItalic.otf'
p196
sg21
g22
sbag7
(g8
g9
NtRp197
(dp198
g12
g13
sg14
S'Gentium'
p199
sg16
I400
sg17
g13
sg18
g13
sg19
S'/usr/share/fonts/truetype/gentium/GenR102.ttf'
p200
sg21
g22
sbag7
(g8
g9
NtRp201
(dp202
g12
g13
sg14
S'DejaVu Serif'
p203
sg16
I400
sg17
g13
sg18
g13
sg19
S'/usr/share/fonts/truetype/ttf-dejavu/DejaVuSerif.ttf'
p204
sg21
g22
sbag7
(g8
g9
NtRp205
(dp206
g12
g13
sg14
S'Liberation Sans Narrow'
p207
sg16
I700
sg17
S'condensed'
p208
sg18
g13
sg19
S'/usr/share/fonts/truetype/liberation/LiberationSansNarrow-Bold.ttf'
p209
sg21
g22
sbag7
(g8
g9
NtRp210
(dp211
g12
g122
sg14
S'FreeSans'
p212
sg16
I400
sg17
g13
sg18
g13
sg19
S'/usr/share/fonts/truetype/freefont/FreeSansOblique.ttf'
p213
sg21
g22
sbag7
(g8
g9
NtRp214
(dp215
g12
g13
sg14
S'Liberation Sans'
p216
sg16
I700
sg17
g13
sg18
g13
sg19
S'/usr/share/fonts/truetype/liberation/LiberationSans-Bold.ttf'
p217
sg21
g22
sbag7
(g8
g9
NtRp218
(dp219
g12
g13
sg14
S'Lohit Hindi'
p220
sg16
I400
sg17
g13
sg18
g13
sg19
S'/usr/share/fonts/truetype/ttf-indic-fonts-core/lohit_hi.ttf'
p221
sg21
g22
sbag7
(g8
g9
NtRp222
(dp223
g12
g13
sg14
S'Liberation Mono'
p224
sg16
I400
sg17
g13
sg18
g13
sg19
S'/usr/share/fonts/truetype/liberation/LiberationMono-Regular.ttf'
p225
sg21
g22
sbag7
(g8
g9
NtRp226
(dp227
g12
g13
sg14
S'GFS Porson'
p228
sg16
I400
sg17
g13
sg18
g13
sg19
S'/usr/share/fonts/truetype/porson/GFSPorson.otf'
p229
sg21
g22
sbag7
(g8
g9
NtRp230
(dp231
g12
g13
sg14
S'Ubuntu'
p232
sg16
I400
sg17
g13
sg18
g13
sg19
S'/usr/share/fonts/truetype/ubuntu-font-family/Ubuntu-R.ttf'
p233
sg21
g22
sbag7
(g8
g9
NtRp234
(dp235
g12
g13
sg14
S'eufm10'
p236
sg16
I400
sg17
g13
sg18
g13
sg19
S'/usr/share/fonts/truetype/ttf-lyx/eufm10.ttf'
p237
sg21
g22
sbag7
(g8
g9
NtRp238
(dp239
g12
g13
sg14
S'Garuda'
p240
sg16
I400
sg17
g13
sg18
g13
sg19
S'/usr/share/fonts/truetype/tlwg/Garuda.ttf'
p241
sg21
g22
sbag7
(g8
g9
NtRp242
(dp243
g12
g122
sg14
S'TlwgMono'
p244
sg16
I400
sg17
g13
sg18
g13
sg19
S'/usr/share/fonts/truetype/tlwg/TlwgMono-Oblique.ttf'
p245
sg21
g22
sbag7
(g8
g9
NtRp246
(dp247
g12
g13
sg14
S'Tlwg Typist'
p248
sg16
I400
sg17
g13
sg18
g13
sg19
S'/usr/share/fonts/truetype/tlwg/TlwgTypist.ttf'
p249
sg21
g22
sbag7
(g8
g9
NtRp250
(dp251
g12
g13
sg14
S'NanumGothic'
p252
sg16
I400
sg17
g13
sg18
g13
sg19
S'/usr/share/fonts/truetype/nanum/NanumGothic.ttf'
p253
sg21
g22
sbag7
(g8
g9
NtRp254
(dp255
g12
g13
sg14
S'wasy10'
p256
sg16
I400
sg17
g13
sg18
g13
sg19
S'/usr/share/fonts/truetype/ttf-lyx/wasy10.ttf'
p257
sg21
g22
sbag7
(g8
g9
NtRp258
(dp259
g12
g13
sg14
S'mry_KacstQurn'
p260
sg16
I400
sg17
g13
sg18
g13
sg19
S'/usr/share/fonts/truetype/kacst/mry_KacstQurn.ttf'
p261
sg21
g22
sbag7
(g8
g9
NtRp262
(dp263
g12
g122
sg14
S'Purisa'
p264
sg16
I400
sg17
g13
sg18
g13
sg19
S'/usr/share/fonts/truetype/tlwg/Purisa-Oblique.ttf'
p265
sg21
g22
sbag7
(g8
g9
NtRp266
(dp267
g12
g13
sg14
S'GFS Artemisia'
p268
sg16
I700
sg17
g13
sg18
g13
sg19
S'/usr/share/fonts/truetype/artemisia/GFSArtemisiaBold.otf'
p269
sg21
g22
sbag7
(g8
g9
NtRp270
(dp271
g12
g13
sg14
S'msbm10'
p272
sg16
I400
sg17
g13
sg18
g13
sg19
S'/usr/share/fonts/truetype/ttf-lyx/msbm10.ttf'
p273
sg21
g22
sbag7
(g8
g9
NtRp274
(dp275
g12
g13
sg14
S'TlwgMono'
p276
sg16
I700
sg17
g13
sg18
g13
sg19
S'/usr/share/fonts/truetype/tlwg/TlwgMono-Bold.ttf'
p277
sg21
g22
sbag7
(g8
g9
NtRp278
(dp279
g12
g29
sg14
S'Liberation Mono'
p280
sg16
I400
sg17
g13
sg18
g13
sg19
S'/usr/share/fonts/truetype/liberation/LiberationMono-Italic.ttf'
p281
sg21
g22
sbag7
(g8
g9
NtRp282
(dp283
g12
g29
sg14
S'Liberation Serif'
p284
sg16
I700
sg17
g13
sg18
g13
sg19
S'/usr/share/fonts/truetype/liberation/LiberationSerif-BoldItalic.ttf'
p285
sg21
g22
sbag7
(g8
g9
NtRp286
(dp287
g12
g13
sg14
S'Liberation Serif'
p288
sg16
I700
sg17
g13
sg18
g13
sg19
S'/usr/share/fonts/truetype/liberation/LiberationSerif-Bold.ttf'
p289
sg21
g22
sbag7
(g8
g9
NtRp290
(dp291
g12
g13
sg14
S'KacstOne'
p292
sg16
I700
sg17
g13
sg18
g13
sg19
S'/usr/share/fonts/truetype/kacst-one/KacstOne-Bold.ttf'
p293
sg21
g22
sbag7
(g8
g9
NtRp294
(dp295
g12
g13
sg14
S'NanumMyeongjo'
p296
sg16
I700
sg17
g13
sg18
g13
sg19
S'/usr/share/fonts/truetype/nanum/NanumMyeongjoBold.ttf'
p297
sg21
g22
sbag7
(g8
g9
NtRp298
(dp299
g12
g13
sg14
S'Waree'
p300
sg16
I700
sg17
g13
sg18
g13
sg19
S'/usr/share/fonts/truetype/tlwg/Waree-Bold.ttf'
p301
sg21
g22
sbag7
(g8
g9
NtRp302
(dp303
g12
g13
sg14
S'Phetsarath OT'
p304
sg16
I400
sg17
g13
sg18
g13
sg19
S'/usr/share/fonts/truetype/lao/Phetsarath_OT.ttf'
p305
sg21
g22
sbag7
(g8
g9
NtRp306
(dp307
g12
g13
sg14
S'ori1Uni'
p308
sg16
I500
sg17
g13
sg18
g13
sg19
S'/usr/share/fonts/truetype/ttf-indic-fonts-core/utkal.ttf'
p309
sg21
g22
sbag7
(g8
g9
NtRp310
(dp311
g12
g13
sg14
S'KacstQurn'
p312
sg16
I400
sg17
g13
sg18
g13
sg19
S'/usr/share/fonts/truetype/kacst/KacstQurn.ttf'
p313
sg21
g22
sbag7
(g8
g9
NtRp314
(dp315
g12
g13
sg14
S'Mukti Narrow'
p316
sg16
I400
sg17
g13
sg18
g13
sg19
S'/usr/share/fonts/truetype/ttf-indic-fonts-core/MuktiNarrow.ttf'
p317
sg21
g22
sbag7
(g8
g9
NtRp318
(dp319
g12
g13
sg14
S'TakaoPGothic'
p320
sg16
I400
sg17
g13
sg18
g13
sg19
S'/usr/share/fonts/truetype/takao-gothic/TakaoPGothic.ttf'
p321
sg21
g22
sbag7
(g8
g9
NtRp322
(dp323
g12
g13
sg14
S'KacstScreen'
p324
sg16
I400
sg17
g13
sg18
g13
sg19
S'/usr/share/fonts/truetype/kacst/KacstScreen.ttf'
p325
sg21
g22
sbag7
(g8
g9
NtRp326
(dp327
g12
g29
sg14
S'GFS Neohellenic'
p328
sg16
I400
sg17
g13
sg18
g13
sg19
S'/usr/share/fonts/truetype/neohellenic/GFSNeohellenicIt.otf'
p329
sg21
g22
sbag7
(g8
g9
NtRp330
(dp331
g12
g13
sg14
S'Kedage'
p332
sg16
I700
sg17
g13
sg18
g13
sg19
S'/usr/share/fonts/truetype/ttf-indic-fonts-core/Kedage-b.ttf'
p333
sg21
g22
sbag7
(g8
g9
NtRp334
(dp335
g12
g13
sg14
S'DejaVu Serif'
p336
sg16
I700
sg17
g13
sg18
g13
sg19
S'/usr/share/fonts/truetype/ttf-dejavu/DejaVuSerif-Bold.ttf'
p337
sg21
g22
sbag7
(g8
g9
NtRp338
(dp339
g12
g13
sg14
S'Ubuntu Mono'
p340
sg16
I400
sg17
g13
sg18
g13
sg19
S'/usr/share/fonts/truetype/ubuntu-font-family/UbuntuMono-R.ttf'
p341
sg21
g22
sbag7
(g8
g9
NtRp342
(dp343
g12
g13
sg14
S'GFS Olga'
p344
sg16
I400
sg17
g13
sg18
g13
sg19
S'/usr/share/fonts/truetype/olga/GFSOlga.otf'
p345
sg21
g22
sbag7
(g8
g9
NtRp346
(dp347
g12
g13
sg14
S'Norasi'
p348
sg16
I700
sg17
g13
sg18
g13
sg19
S'/usr/share/fonts/truetype/tlwg/Norasi-Bold.ttf'
p349
sg21
g22
sbag7
(g8
g9
NtRp350
(dp351
g12
g29
sg14
S'Norasi'
p352
sg16
I700
sg17
g13
sg18
g13
sg19
S'/usr/share/fonts/truetype/tlwg/Norasi-BoldItalic.ttf'
p353
sg21
g22
sbag7
(g8
g9
NtRp354
(dp355
g12
g13
sg14
S'Umpush'
p356
sg16
I700
sg17
g13
sg18
g13
sg19
S'/usr/share/fonts/truetype/tlwg/Umpush-Bold.ttf'
p357
sg21
g22
sbag7
(g8
g9
NtRp358
(dp359
g12
g122
sg14
S'Kinnari'
p360
sg16
I700
sg17
g13
sg18
g13
sg19
S'/usr/share/fonts/truetype/tlwg/Kinnari-BoldOblique.ttf'
p361
sg21
g22
sbag7
(g8
g9
NtRp362
(dp363
g12
g29
sg14
S'Liberation Sans'
p364
sg16
I700
sg17
g13
sg18
g13
sg19
S'/usr/share/fonts/truetype/liberation/LiberationSans-BoldItalic.ttf'
p365
sg21
g22
sbag7
(g8
g9
NtRp366
(dp367
g12
g13
sg14
S'FreeMono'
p368
sg16
I400
sg17
g13
sg18
g13
sg19
S'/usr/share/fonts/truetype/freefont/FreeMono.ttf'
p369
sg21
g22
sbag7
(g8
g9
NtRp370
(dp371
g12
g13
sg14
S'Mallige'
p372
sg16
I400
sg17
g13
sg18
g13
sg19
S'/usr/share/fonts/truetype/ttf-indic-fonts-core/Malige-n.ttf'
p373
sg21
g22
sbag7
(g8
g9
NtRp374
(dp375
g12
g13
sg14
S'KacstNaskh'
p376
sg16
I400
sg17
g13
sg18
g13
sg19
S'/usr/share/fonts/truetype/kacst/KacstNaskh.ttf'
p377
sg21
g22
sbag7
(g8
g9
NtRp378
(dp379
g12
g13
sg14
S'Rekha'
p380
sg16
I400
sg17
g13
sg18
g13
sg19
S'/usr/share/fonts/truetype/ttf-indic-fonts-core/Rekha.ttf'
p381
sg21
g22
sbag7
(g8
g9
NtRp382
(dp383
g12
g13
sg14
S'Vemana2000'
p384
sg16
I400
sg17
g13
sg18
g13
sg19
S'/usr/share/fonts/truetype/ttf-indic-fonts-core/Vemana.ttf'
p385
sg21
g22
sbag7
(g8
g9
NtRp386
(dp387
g12
g122
sg14
S'Norasi'
p388
sg16
I700
sg17
g13
sg18
g13
sg19
S'/usr/share/fonts/truetype/tlwg/Norasi-BoldOblique.ttf'
p389
sg21
g22
sbag7
(g8
g9
NtRp390
(dp391
g12
g29
sg14
S'Kinnari'
p392
sg16
I700
sg17
g13
sg18
g13
sg19
S'/usr/share/fonts/truetype/tlwg/Kinnari-BoldItalic.ttf'
p393
sg21
g22
sbag7
(g8
g9
NtRp394
(dp395
g12
g13
sg14
S'Sawasdee'
p396
sg16
I400
sg17
g13
sg18
g13
sg19
S'/usr/share/fonts/truetype/tlwg/Sawasdee.ttf'
p397
sg21
g22
sbag7
(g8
g9
NtRp398
(dp399
g12
g13
sg14
S'KacstOne'
p400
sg16
I400
sg17
g13
sg18
g13
sg19
S'/usr/share/fonts/truetype/kacst-one/KacstOne.ttf'
p401
sg21
g22
sbag7
(g8
g9
NtRp402
(dp403
g12
g13
sg14
S'FreeSans'
p404
sg16
I700
sg17
g13
sg18
g13
sg19
S'/usr/share/fonts/truetype/freefont/FreeSansBold.ttf'
p405
sg21
g22
sbag7
(g8
g9
NtRp406
(dp407
g12
g13
sg14
S'Lohit Bengali'
p408
sg16
I400
sg17
g13
sg18
g13
sg19
S'/usr/share/fonts/truetype/ttf-indic-fonts-core/lohit_bn.ttf'
p409
sg21
g22
sbag7
(g8
g9
NtRp410
(dp411
g12
g29
sg14
S'Ubuntu Mono'
p412
sg16
I400
sg17
g13
sg18
g13
sg19
S'/usr/share/fonts/truetype/ubuntu-font-family/UbuntuMono-RI.ttf'
p413
sg21
g22
sbag7
(g8
g9
NtRp414
(dp415
g12
g13
sg14
S'GFS Baskerville'
p416
sg16
I400
sg17
g13
sg18
g13
sg19
S'/usr/share/fonts/truetype/baskerville/GFSBaskerville.otf'
p417
sg21
g22
sbag7
(g8
g9
NtRp418
(dp419
g12
g13
sg14
S'Umpush'
p420
sg16
I200
sg17
g13
sg18
g13
sg19
S'/usr/share/fonts/truetype/tlwg/Umpush-Light.ttf'
p421
sg21
g22
sbag7
(g8
g9
NtRp422
(dp423
g12
g13
sg14
S'Purisa'
p424
sg16
I700
sg17
g13
sg18
g13
sg19
S'/usr/share/fonts/truetype/tlwg/Purisa-Bold.ttf'
p425
sg21
g22
sbag7
(g8
g9
NtRp426
(dp427
g12
g13
sg14
S'GFS Theokritos'
p428
sg16
I400
sg17
g13
sg18
g13
sg19
S'/usr/share/fonts/truetype/theokritos/GFSTheokritos.otf'
p429
sg21
g22
sbag7
(g8
g9
NtRp430
(dp431
g12
g13
sg14
S'FreeMono'
p432
sg16
I700
sg17
g13
sg18
g13
sg19
S'/usr/share/fonts/truetype/freefont/FreeMonoBold.ttf'
p433
sg21
g22
sbag7
(g8
g9
NtRp434
(dp435
g12
g13
sg14
S'DejaVu Sans'
p436
sg16
I700
sg17
g13
sg18
g13
sg19
S'/usr/share/fonts/truetype/ttf-dejavu/DejaVuSans-Bold.ttf'
p437
sg21
g22
sbag7
(g8
g9
NtRp438
(dp439
g12
g13
sg14
S'Tlwg Typist'
p440
sg16
I700
sg17
g13
sg18
g13
sg19
S'/usr/share/fonts/truetype/tlwg/TlwgTypist-Bold.ttf'
p441
sg21
g22
sbag7
(g8
g9
NtRp442
(dp443
g12
g13
sg14
S'Ubuntu'
p444
sg16
I200
sg17
g13
sg18
g13
sg19
S'/usr/share/fonts/truetype/ubuntu-font-family/Ubuntu-L.ttf'
p445
sg21
g22
sbag7
(g8
g9
NtRp446
(dp447
g12
g13
sg14
S'KacstBook'
p448
sg16
I400
sg17
g13
sg18
g13
sg19
S'/usr/share/fonts/truetype/kacst/KacstBook.ttf'
p449
sg21
g22
sbag7
(g8
g9
NtRp450
(dp451
g12
g13
sg14
S'GFS Artemisia'
p452
sg16
I400
sg17
g13
sg18
g13
sg19
S'/usr/share/fonts/truetype/artemisia/GFSArtemisia.otf'
p453
sg21
g22
sbag7
(g8
g9
NtRp454
(dp455
g12
g13
sg14
S'KacstFarsi'
p456
sg16
I400
sg17
g13
sg18
g13
sg19
S'/usr/share/fonts/truetype/kacst/KacstFarsi.ttf'
p457
sg21
g22
sbag7
(g8
g9
NtRp458
(dp459
g12
g13
sg14
S'KacstPoster'
p460
sg16
I400
sg17
g13
sg18
g13
sg19
S'/usr/share/fonts/truetype/kacst/KacstPoster.ttf'
p461
sg21
g22
sbag7
(g8
g9
NtRp462
(dp463
g12
g13
sg14
S'Purisa'
p464
sg16
I400
sg17
g13
sg18
g13
sg19
S'/usr/share/fonts/truetype/tlwg/Purisa.ttf'
p465
sg21
g22
sbag7
(g8
g9
NtRp466
(dp467
g12
g29
sg14
S'Ubuntu'
p468
sg16
I200
sg17
g13
sg18
g13
sg19
S'/usr/share/fonts/truetype/ubuntu-font-family/Ubuntu-LI.ttf'
p469
sg21
g22
sbag7
(g8
g9
NtRp470
(dp471
g12
g13
sg14
S'Pothana2000'
p472
sg16
I400
sg17
g13
sg18
g13
sg19
S'/usr/share/fonts/truetype/ttf-indic-fonts-core/Pothana2000.ttf'
p473
sg21
g22
sbag7
(g8
g9
NtRp474
(dp475
g12
g122
sg14
S'Umpush'
p476
sg16
I400
sg17
g13
sg18
g13
sg19
S'/usr/share/fonts/truetype/tlwg/Umpush-Oblique.ttf'
p477
sg21
g22
sbag7
(g8
g9
NtRp478
(dp479
g12
g13
sg14
S'NanumGothic'
p480
sg16
I700
sg17
g13
sg18
g13
sg19
S'/usr/share/fonts/truetype/nanum/NanumGothicBold.ttf'
p481
sg21
g22
sbag7
(g8
g9
NtRp482
(dp483
g12
g29
sg14
S'Liberation Mono'
p484
sg16
I700
sg17
g13
sg18
g13
sg19
S'/usr/share/fonts/truetype/liberation/LiberationMono-BoldItalic.ttf'
p485
sg21
g22
sbag7
(g8
g9
NtRp486
(dp487
g12
g122
sg14
S'Purisa'
p488
sg16
I700
sg17
g13
sg18
g13
sg19
S'/usr/share/fonts/truetype/tlwg/Purisa-BoldOblique.ttf'
p489
sg21
g22
sbag7
(g8
g9
NtRp490
(dp491
g12
g122
sg14
S'Loma'
p492
sg16
I700
sg17
g13
sg18
g13
sg19
S'/usr/share/fonts/truetype/tlwg/Loma-BoldOblique.ttf'
p493
sg21
g22
sbag7
(g8
g9
NtRp494
(dp495
g12
g29
sg14
S'GFS Didot'
p496
sg16
I700
sg17
g13
sg18
g13
sg19
S'/usr/share/fonts/truetype/artemisia/GFSArtemisiaBoldIt.otf'
p497
sg21
g22
sbag7
(g8
g9
NtRp498
(dp499
g12
g13
sg14
S'TlwgTypewriter'
p500
sg16
I400
sg17
g13
sg18
g13
sg19
S'/usr/share/fonts/truetype/tlwg/TlwgTypewriter.ttf'
p501
sg21
g22
sbag7
(g8
g9
NtRp502
(dp503
g12
g13
sg14
S'DejaVu Sans'
p504
sg16
I400
sg17
g13
sg18
g13
sg19
S'/usr/share/fonts/truetype/ttf-dejavu/DejaVuSans.ttf'
p505
sg21
g22
sbag7
(g8
g9
NtRp506
(dp507
g12
g13
sg14
S'Ubuntu Mono'
p508
sg16
I700
sg17
g13
sg18
g13
sg19
S'/usr/share/fonts/truetype/ubuntu-font-family/UbuntuMono-B.ttf'
p509
sg21
g22
sbag7
(g8
g9
NtRp510
(dp511
g12
g13
sg14
S'esint10'
p512
sg16
I400
sg17
g13
sg18
g13
sg19
S'/usr/share/fonts/truetype/ttf-lyx/esint10.ttf'
p513
sg21
g22
sbag7
(g8
g9
NtRp514
(dp515
g12
g13
sg14
S'OpenSymbol'
p516
sg16
I400
sg17
g13
sg18
g13
sg19
S'/usr/share/fonts/truetype/openoffice/opens___.ttf'
p517
sg21
g22
sbag7
(g8
g9
NtRp518
(dp519
g12
g29
sg14
S'GentiumAlt'
p520
sg16
I400
sg17
g13
sg18
g13
sg19
S'/usr/share/fonts/truetype/gentium/GenAI102.ttf'
p521
sg21
g22
sbag7
(g8
g9
NtRp522
(dp523
g12
g13
sg14
S'gargi'
p524
sg16
I400
sg17
g13
sg18
g13
sg19
S'/usr/share/fonts/truetype/ttf-indic-fonts-core/gargi.ttf'
p525
sg21
g22
sbag7
(g8
g9
NtRp526
(dp527
g12
g29
sg14
S'Norasi'
p528
sg16
I400
sg17
g13
sg18
g13
sg19
S'/usr/share/fonts/truetype/tlwg/Norasi-Italic.ttf'
p529
sg21
g22
sbag7
(g8
g9
NtRp530
(dp531
g12
g29
sg14
S'Ubuntu'
p532
sg16
I700
sg17
g13
sg18
g13
sg19
S'/usr/share/fonts/truetype/ubuntu-font-family/Ubuntu-BI.ttf'
p533
sg21
g22
sbag7
(g8
g9
NtRp534
(dp535
g12
g29
sg14
S'GFS Artemisia'
p536
sg16
I400
sg17
g13
sg18
g13
sg19
S'/usr/share/fonts/truetype/artemisia/GFSArtemisiaIt.otf'
p537
sg21
g22
sbag7
(g8
g9
NtRp538
(dp539
g12
g13
sg14
S'Khmer OS System'
p540
sg16
I400
sg17
g13
sg18
g13
sg19
S'/usr/share/fonts/truetype/ttf-khmeros-core/KhmerOSsys.ttf'
p541
sg21
g22
sbag7
(g8
g9
NtRp542
(dp543
g12
g122
sg14
S'Tlwg Typist'
p544
sg16
I400
sg17
g13
sg18
g13
sg19
S'/usr/share/fonts/truetype/tlwg/TlwgTypist-Oblique.ttf'
p545
sg21
g22
sbag7
(g8
g9
NtRp546
(dp547
g12
g13
sg14
S'Norasi'
p548
sg16
I400
sg17
g13
sg18
g13
sg19
S'/usr/share/fonts/truetype/tlwg/Norasi.ttf'
p549
sg21
g22
sbag7
(g8
g9
NtRp550
(dp551
g12
g13
sg14
S'GFS Didot'
p552
sg16
I700
sg17
g13
sg18
g13
sg19
S'/usr/share/fonts/truetype/didot/GFSDidotBold.otf'
p553
sg21
g22
sbag7
(g8
g9
NtRp554
(dp555
g12
g13
sg14
S'Mukti Narrow'
p556
sg16
I700
sg17
g13
sg18
g13
sg19
S'/usr/share/fonts/truetype/ttf-indic-fonts-core/MuktiNarrowBold.ttf'
p557
sg21
g22
sbag7
(g8
g9
NtRp558
(dp559
g12
g13
sg14
S'GentiumAlt'
p560
sg16
I400
sg17
g13
sg18
g13
sg19
S'/usr/share/fonts/truetype/gentium/GenAR102.ttf'
p561
sg21
g22
sbag7
(g8
g9
NtRp562
(dp563
g12
g29
sg14
S'Liberation Sans'
p564
sg16
I400
sg17
g13
sg18
g13
sg19
S'/usr/share/fonts/truetype/liberation/LiberationSans-Italic.ttf'
p565
sg21
g22
sbag7
(g8
g9
NtRp566
(dp567
g12
g122
sg14
S'Umpush'
p568
sg16
I700
sg17
g13
sg18
g13
sg19
S'/usr/share/fonts/truetype/tlwg/Umpush-BoldOblique.ttf'
p569
sg21
g22
sbag7
(g8
g9
NtRp570
(dp571
g12
g13
sg14
S'Ubuntu'
p572
sg16
I700
sg17
g13
sg18
g13
sg19
S'/usr/share/fonts/truetype/ubuntu-font-family/Ubuntu-B.ttf'
p573
sg21
g22
sbag7
(g8
g9
NtRp574
(dp575
g12
g122
sg14
S'FreeSans'
p576
sg16
I700
sg17
g13
sg18
g13
sg19
S'/usr/share/fonts/truetype/freefont/FreeSansBoldOblique.ttf'
p577
sg21
g22
sbag7
(g8
g9
NtRp578
(dp579
g12
g13
sg14
S'Tlwg Typo'
p580
sg16
I700
sg17
g13
sg18
g13
sg19
S'/usr/share/fonts/truetype/tlwg/TlwgTypo-Bold.ttf'
p581
sg21
g22
sbag7
(g8
g9
NtRp582
(dp583
g12
g29
sg14
S'Ubuntu'
p584
sg16
I400
sg17
g13
sg18
g13
sg19
S'/usr/share/fonts/truetype/ubuntu-font-family/Ubuntu-RI.ttf'
p585
sg21
g22
sbag7
(g8
g9
NtRp586
(dp587
g12
g122
sg14
S'Waree'
p588
sg16
I400
sg17
g13
sg18
g13
sg19
S'/usr/share/fonts/truetype/tlwg/Waree-Oblique.ttf'
p589
sg21
g22
sbag7
(g8
g9
NtRp590
(dp591
g12
g29
sg14
S'Liberation Serif'
p592
sg16
I400
sg17
g13
sg18
g13
sg19
S'/usr/share/fonts/truetype/liberation/LiberationSerif-Italic.ttf'
p593
sg21
g22
sbag7
(g8
g9
NtRp594
(dp595
g12
g13
sg14
S'TlwgTypewriter'
p596
sg16
I700
sg17
g13
sg18
g13
sg19
S'/usr/share/fonts/truetype/tlwg/TlwgTypewriter-Bold.ttf'
p597
sg21
g22
sbag7
(g8
g9
NtRp598
(dp599
g12
g122
sg14
S'Waree'
p600
sg16
I700
sg17
g13
sg18
g13
sg19
S'/usr/share/fonts/truetype/tlwg/Waree-BoldOblique.ttf'
p601
sg21
g22
sbag7
(g8
g9
NtRp602
(dp603
g12
g13
sg14
S'FreeSans'
p604
sg16
I400
sg17
g13
sg18
g13
sg19
S'/usr/share/fonts/truetype/freefont/FreeSans.ttf'
p605
sg21
g22
sbag7
(g8
g9
NtRp606
(dp607
g12
g122
sg14
S'Kinnari'
p608
sg16
I400
sg17
g13
sg18
g13
sg19
S'/usr/share/fonts/truetype/tlwg/Kinnari-Oblique.ttf'
p609
sg21
g22
sbag7
(g8
g9
NtRp610
(dp611
g12
g13
sg14
S'DejaVu Sans Mono'
p612
sg16
I700
sg17
g13
sg18
g13
sg19
S'/usr/share/fonts/truetype/ttf-dejavu/DejaVuSansMono-Bold.ttf'
p613
sg21
g22
sbag7
(g8
g9
NtRp614
(dp615
g12
g29
sg14
S'Gentium'
p616
sg16
I400
sg17
g13
sg18
g13
sg19
S'/usr/share/fonts/truetype/gentium/GenI102.ttf'
p617
sg21
g22
sbag7
(g8
g9
NtRp618
(dp619
g12
g29
sg14
S'FreeSerif'
p620
sg16
I700
sg17
g13
sg18
g13
sg19
S'/usr/share/fonts/truetype/freefont/FreeSerifBoldItalic.ttf'
p621
sg21
g22
sbag7
(g8
g9
NtRp622
(dp623
g12
g13
sg14
S'KacstArt'
p624
sg16
I400
sg17
g13
sg18
g13
sg19
S'/usr/share/fonts/truetype/kacst/KacstArt.ttf'
p625
sg21
g22
sbag7
(g8
g9
NtRp626
(dp627
g12
g13
sg14
S'Waree'
p628
sg16
I400
sg17
g13
sg18
g13
sg19
S'/usr/share/fonts/truetype/tlwg/Waree.ttf'
p629
sg21
g22
sbag7
(g8
g9
NtRp630
(dp631
g12
g29
sg14
S'Liberation Sans Narrow'
p632
sg16
I700
sg17
g208
sg18
g13
sg19
S'/usr/share/fonts/truetype/liberation/LiberationSansNarrow-BoldItalic.ttf'
p633
sg21
g22
sbag7
(g8
g9
NtRp634
(dp635
g12
g13
sg14
S'Liberation Serif'
p636
sg16
I400
sg17
g13
sg18
g13
sg19
S'/usr/share/fonts/truetype/liberation/LiberationSerif-Regular.ttf'
p637
sg21
g22
sbag7
(g8
g9
NtRp638
(dp639
g12
g13
sg14
S'GFS Didot'
p640
sg16
I400
sg17
g13
sg18
g13
sg19
S'/usr/share/fonts/truetype/didot/GFSDidot.otf'
p641
sg21
g22
sbag7
(g8
g9
NtRp642
(dp643
g12
g13
sg14
S'Lohit Tamil'
p644
sg16
I400
sg17
g13
sg18
g13
sg19
S'/usr/share/fonts/truetype/ttf-indic-fonts-core/lohit_ta.ttf'
p645
sg21
g22
sbag7
(g8
g9
NtRp646
(dp647
g12
g13
sg14
S'Liberation Sans'
p648
sg16
I400
sg17
g13
sg18
g13
sg19
S'/usr/share/fonts/truetype/liberation/LiberationSans-Regular.ttf'
p649
sg21
g22
sbag7
(g8
g9
NtRp650
(dp651
g12
g13
sg14
S'Ubuntu Condensed'
p652
sg16
I400
sg17
g208
sg18
g13
sg19
S'/usr/share/fonts/truetype/ubuntu-font-family/Ubuntu-C.ttf'
p653
sg21
g22
sbag7
(g8
g9
NtRp654
(dp655
g12
g13
sg14
S'Kinnari'
p656
sg16
I400
sg17
g13
sg18
g13
sg19
S'/usr/share/fonts/truetype/tlwg/Kinnari.ttf'
p657
sg21
g22
sbag7
(g8
g9
NtRp658
(dp659
g12
g13
sg14
S'GFS Neohellenic'
p660
sg16
I400
sg17
g13
sg18
g13
sg19
S'/usr/share/fonts/truetype/neohellenic/GFSNeohellenic.otf'
p661
sg21
g22
sbag7
(g8
g9
NtRp662
(dp663
g12
g29
sg14
S'Ubuntu Mono'
p664
sg16
I700
sg17
g13
sg18
g13
sg19
S'/usr/share/fonts/truetype/ubuntu-font-family/UbuntuMono-BI.ttf'
p665
sg21
g22
sbag7
(g8
g9
NtRp666
(dp667
g12
g13
sg14
S'GFS Gazis'
p668
sg16
I400
sg17
g13
sg18
g13
sg19
S'/usr/share/fonts/truetype/gazis/GFSGazis.otf'
p669
sg21
g22
sbag7
(g8
g9
NtRp670
(dp671
g12
g13
sg14
S'Rachana'
p672
sg16
I400
sg17
g13
sg18
g13
sg19
S'/usr/share/fonts/truetype/ttf-indic-fonts-core/Rachana_04.ttf'
p673
sg21
g22
sbag7
(g8
g9
NtRp674
(dp675
g12
g122
sg14
S'TlwgMono'
p676
sg16
I700
sg17
g13
sg18
g13
sg19
S'/usr/share/fonts/truetype/tlwg/TlwgMono-BoldOblique.ttf'
p677
sg21
g22
sbag7
(g8
g9
NtRp678
(dp679
g12
g13
sg14
S'Kedage'
p680
sg16
I400
sg17
g13
sg18
g13
sg19
S'/usr/share/fonts/truetype/ttf-indic-fonts-core/Kedage-n.ttf'
p681
sg21
g22
sbag7
(g8
g9
NtRp682
(dp683
g12
g13
sg14
S'Kinnari'
p684
sg16
I700
sg17
g13
sg18
g13
sg19
S'/usr/share/fonts/truetype/tlwg/Kinnari-Bold.ttf'
p685
sg21
g22
sbag7
(g8
g9
NtRp686
(dp687
g12
g122
sg14
S'FreeMono'
p688
sg16
I400
sg17
g13
sg18
g13
sg19
S'/usr/share/fonts/truetype/freefont/FreeMonoOblique.ttf'
p689
sg21
g22
sbag7
(g8
g9
NtRp690
(dp691
g12
g13
sg14
S'TlwgMono'
p692
sg16
I400
sg17
g13
sg18
g13
sg19
S'/usr/share/fonts/truetype/tlwg/TlwgMono.ttf'
p693
sg21
g22
sbag7
(g8
g9
NtRp694
(dp695
g12
g122
sg14
S'TlwgTypewriter'
p696
sg16
I700
sg17
g13
sg18
g13
sg19
S'/usr/share/fonts/truetype/tlwg/TlwgTypewriter-BoldOblique.ttf'
p697
sg21
g22
sbag7
(g8
g9
NtRp698
(dp699
g12
g13
sg14
S'FreeSerif'
p700
sg16
I400
sg17
g13
sg18
g13
sg19
S'/usr/share/fonts/truetype/freefont/FreeSerif.ttf'
p701
sg21
g22
sbag7
(g8
g9
NtRp702
(dp703
g12
g13
sg14
S'Liberation Sans Narrow'
p704
sg16
I400
sg17
g208
sg18
g13
sg19
S'/usr/share/fonts/truetype/liberation/LiberationSansNarrow-Regular.ttf'
p705
sg21
g22
sbag7
(g8
g9
NtRp706
(dp707
g12
g13
sg14
S'GFS Didot Classic'
p708
sg16
I400
sg17
g13
sg18
g13
sg19
S'/usr/share/fonts/truetype/didot-classic/GFSDidotClassic.otf'
p709
sg21
g22
sbag7
(g8
g9
NtRp710
(dp711
g12
g29
sg14
S'Kinnari'
p712
sg16
I400
sg17
g13
sg18
g13
sg19
S'/usr/share/fonts/truetype/tlwg/Kinnari-Italic.ttf'
p713
sg21
g22
sbag7
(g8
g9
NtRp714
(dp715
g12
g122
sg14
S'Sawasdee'
p716
sg16
I700
sg17
g13
sg18
g13
sg19
S'/usr/share/fonts/truetype/tlwg/Sawasdee-BoldOblique.ttf'
p717
sg21
g22
sbag7
(g8
g9
NtRp718
(dp719
g12
g13
sg14
S'Sawasdee'
p720
sg16
I700
sg17
g13
sg18
g13
sg19
S'/usr/share/fonts/truetype/tlwg/Sawasdee-Bold.ttf'
p721
sg21
g22
sbag7
(g8
g9
NtRp722
(dp723
g12
g13
sg14
S'KacstDigital'
p724
sg16
I400
sg17
g13
sg18
g13
sg19
S'/usr/share/fonts/truetype/kacst/KacstDigital.ttf'
p725
sg21
g22
sbag7
(g8
g9
NtRp726
(dp727
g12
g13
sg14
S'Saab'
p728
sg16
I400
sg17
g13
sg18
g13
sg19
S'/usr/share/fonts/truetype/ttf-punjabi-fonts/Saab.ttf'
p729
sg21
g22
sbag7
(g8
g9
NtRp730
(dp731
g12
g13
sg14
S'KacstOffice'
p732
sg16
I400
sg17
g13
sg18
g13
sg19
S'/usr/share/fonts/truetype/kacst/KacstOffice.ttf'
p733
sg21
g22
sbag7
(g8
g9
NtRp734
(dp735
g12
g29
sg14
S'GFS Didot'
p736
sg16
I400
sg17
g13
sg18
g13
sg19
S'/usr/share/fonts/truetype/didot/GFSDidotItalic.otf'
p737
sg21
g22
sbag7
(g8
g9
NtRp738
(dp739
g12
g13
sg14
S'Lohit Gujarati'
p740
sg16
I400
sg17
g13
sg18
g13
sg19
S'/usr/share/fonts/truetype/ttf-indic-fonts-core/lohit_gu.ttf'
p741
sg21
g22
sbag7
(g8
g9
NtRp742
(dp743
g12
g122
sg14
S'Sawasdee'
p744
sg16
I400
sg17
g13
sg18
g13
sg19
S'/usr/share/fonts/truetype/tlwg/Sawasdee-Oblique.ttf'
p745
sg21
g22
sbag7
(g8
g9
NtRp746
(dp747
g12
g13
sg14
S'NanumMyeongjo'
p748
sg16
I400
sg17
g13
sg18
g13
sg19
S'/usr/share/fonts/truetype/nanum/NanumMyeongjo.ttf'
p749
sg21
g22
sbag7
(g8
g9
NtRp750
(dp751
g12
g13
sg14
S'Khmer OS'
p752
sg16
I400
sg17
g13
sg18
g13
sg19
S'/usr/share/fonts/truetype/ttf-khmeros-core/KhmerOS.ttf'
p753
sg21
g22
sbag7
(g8
g9
NtRp754
(dp755
g12
g13
sg14
S'GFS Neohellenic'
p756
sg16
I700
sg17
g13
sg18
g13
sg19
S'/usr/share/fonts/truetype/neohellenic/GFSNeohellenicBold.otf'
p757
sg21
g22
sbag7
(g8
g9
NtRp758
(dp759
g12
g13
sg14
S'Loma'
p760
sg16
I400
sg17
g13
sg18
g13
sg19
S'/usr/share/fonts/truetype/tlwg/Loma.ttf'
p761
sg21
g22
sbag7
(g8
g9
NtRp762
(dp763
g12
g122
sg14
S'Garuda'
p764
sg16
I400
sg17
g13
sg18
g13
sg19
S'/usr/share/fonts/truetype/tlwg/Garuda-Oblique.ttf'
p765
sg21
g22
sbag7
(g8
g9
NtRp766
(dp767
g12
g13
sg14
S'GFS BodoniClassic'
p768
sg16
I400
sg17
g13
sg18
g13
sg19
S'/usr/share/fonts/truetype/bodoni-classic/GFSBodoniClassic.otf'
p769
sg21
g22
sbag7
(g8
g9
NtRp770
(dp771
g12
g13
sg14
S'Loma'
p772
sg16
I700
sg17
g13
sg18
g13
sg19
S'/usr/share/fonts/truetype/tlwg/Loma-Bold.ttf'
p773
sg21
g22
sbag7
(g8
g9
NtRp774
(dp775
g12
g122
sg14
S'Garuda'
p776
sg16
I700
sg17
g13
sg18
g13
sg19
S'/usr/share/fonts/truetype/tlwg/Garuda-BoldOblique.ttf'
p777
sg21
g22
sbag7
(g8
g9
NtRp778
(dp779
g12
g13
sg14
S'KacstLetter'
p780
sg16
I400
sg17
g13
sg18
g13
sg19
S'/usr/share/fonts/truetype/kacst/KacstLetter.ttf'
p781
sg21
g22
sbag7
(g8
g9
NtRp782
(dp783
g12
g13
sg14
S'KacstPen'
p784
sg16
I400
sg17
g13
sg18
g13
sg19
S'/usr/share/fonts/truetype/kacst/KacstPen.ttf'
p785
sg21
g22
sbag7
(g8
g9
NtRp786
(dp787
g12
g122
sg14
S'Tlwg Typo'
p788
sg16
I700
sg17
g13
sg18
g13
sg19
S'/usr/share/fonts/truetype/tlwg/TlwgTypo-BoldOblique.ttf'
p789
sg21
g22
sbag7
(g8
g9
NtRp790
(dp791
g12
g13
sg14
S'msam10'
p792
sg16
I400
sg17
g13
sg18
g13
sg19
S'/usr/share/fonts/truetype/ttf-lyx/msam10.ttf'
p793
sg21
g22
sbag7
(g8
g9
NtRp794
(dp795
g12
g13
sg14
S'Untitled1'
p796
sg16
I400
sg17
g13
sg18
g13
sg19
S'/usr/share/fonts/truetype/freefont/Untitled1.ttf'
p797
sg21
g22
sbag7
(g8
g9
NtRp798
(dp799
g12
g29
sg14
S'FreeSerif'
p800
sg16
I400
sg17
g13
sg18
g13
sg19
S'/usr/share/fonts/truetype/freefont/FreeSerifItalic.ttf'
p801
sg21
g22
sbag7
(g8
g9
NtRp802
(dp803
g12
g13
sg14
S'KacstTitleL'
p804
sg16
I400
sg17
g13
sg18
g13
sg19
S'/usr/share/fonts/truetype/kacst/KacstTitleL.ttf'
p805
sg21
g22
sbag7
(g8
g9
NtRp806
(dp807
g12
g29
sg14
S'GFS Neohellenic'
p808
sg16
I700
sg17
g13
sg18
g13
sg19
S'/usr/share/fonts/truetype/neohellenic/GFSNeohellenicBoldIt.otf'
p809
sg21
g22
sbag7
(g8
g9
NtRp810
(dp811
g12
g13
sg14
S'KacstDecorative'
p812
sg16
I400
sg17
g13
sg18
g13
sg19
S'/usr/share/fonts/truetype/kacst/KacstDecorative.ttf'
p813
sg21
g22
sbag7
(g8
g9
NtRp814
(dp815
g12
g122
sg14
S'TlwgTypewriter'
p816
sg16
I400
sg17
g13
sg18
g13
sg19
S'/usr/share/fonts/truetype/tlwg/TlwgTypewriter-Oblique.ttf'
p817
sg21
g22
sbag7
(g8
g9
NtRp818
(dp819
g12
g29
sg14
S'Liberation Sans Narrow'
p820
sg16
I400
sg17
g208
sg18
g13
sg19
S'/usr/share/fonts/truetype/liberation/LiberationSansNarrow-Italic.ttf'
p821
sg21
g22
sbasS'defaultFamily'
p822
(dp823
S'afm'
p824
S'Helvetica'
p825
sS'ttf'
p826
S'Bitstream Vera Sans'
p827
ssS'ttffiles'
p828
(lp829
S'/usr/share/matplotlib/mpl-data/fonts/ttf/cmb10.ttf'
p830
aS'/usr/share/matplotlib/mpl-data/fonts/ttf/cmex10.ttf'
p831
aS'/usr/share/matplotlib/mpl-data/fonts/ttf/STIXNonUniIta.ttf'
p832
aS'/usr/share/matplotlib/mpl-data/fonts/ttf/STIXSizOneSymReg.ttf'
p833
aS'/usr/share/matplotlib/mpl-data/fonts/ttf/STIXSizThreeSymReg.ttf'
p834
aS'/usr/share/matplotlib/mpl-data/fonts/ttf/STIXSizTwoSymBol.ttf'
p835
aS'/usr/share/matplotlib/mpl-data/fonts/ttf/cmtt10.ttf'
p836
aS'/usr/share/matplotlib/mpl-data/fonts/ttf/STIXGeneral.ttf'
p837
aS'/usr/share/matplotlib/mpl-data/fonts/ttf/STIXNonUniBolIta.ttf'
p838
aS'/usr/share/matplotlib/mpl-data/fonts/ttf/STIXNonUni.ttf'
p839
aS'/usr/share/matplotlib/mpl-data/fonts/ttf/STIXSizFiveSymReg.ttf'
p840
aS'/usr/share/matplotlib/mpl-data/fonts/ttf/STIXSizOneSymBol.ttf'
p841
aS'/usr/share/matplotlib/mpl-data/fonts/ttf/STIXGeneralBol.ttf'
p842
aS'/usr/share/matplotlib/mpl-data/fonts/ttf/cmr10.ttf'
p843
aS'/usr/share/matplotlib/mpl-data/fonts/ttf/STIXSizTwoSymReg.ttf'
p844
aS'/usr/share/matplotlib/mpl-data/fonts/ttf/STIXSizFourSymReg.ttf'
p845
aS'/usr/share/matplotlib/mpl-data/fonts/ttf/cmsy10.ttf'
p846
aS'/usr/share/matplotlib/mpl-data/fonts/ttf/STIXSizThreeSymBol.ttf'
p847
aS'/usr/share/matplotlib/mpl-data/fonts/ttf/cmss10.ttf'
p848
aS'/usr/share/matplotlib/mpl-data/fonts/ttf/STIXSizFourSymBol.ttf'
p849
aS'/usr/share/matplotlib/mpl-data/fonts/ttf/STIXGeneralItalic.ttf'
p850
aS'/usr/share/matplotlib/mpl-data/fonts/ttf/cmmi10.ttf'
p851
aS'/usr/share/matplotlib/mpl-data/fonts/ttf/STIXNonUniBol.ttf'
p852
aS'/usr/share/matplotlib/mpl-data/fonts/ttf/STIXGeneralBolIta.ttf'
p853
aS'/usr/share/fonts/truetype/kacst/KacstTitle.ttf'
p854
aS'/usr/share/fonts/truetype/tlwg/TlwgTypo-Oblique.ttf'
p855
aS'/usr/share/fonts/truetype/ttf-indic-fonts-core/Malige-b.ttf'
p856
aS'/usr/share/fonts/truetype/tlwg/Umpush.ttf'
p857
aS'/usr/share/fonts/truetype/tlwg/Garuda-Bold.ttf'
p858
aS'/usr/share/fonts/truetype/tlwg/TlwgTypist-BoldOblique.ttf'
p859
aS'/usr/share/fonts/truetype/ttf-lyx/rsfs10.ttf'
p860
aS'/usr/share/fonts/truetype/tlwg/Loma-Oblique.ttf'
p861
aS'/usr/share/fonts/truetype/tlwg/Norasi-Oblique.ttf'
p862
aS'/usr/share/fonts/truetype/ttf-dejavu/DejaVuSansMono.ttf'
p863
aS'/usr/share/fonts/truetype/ttf-punjabi-fonts/lohit_pa.ttf'
p864
aS'/usr/share/fonts/truetype/ttf-indic-fonts-core/Meera_04.ttf'
p865
aS'/usr/share/fonts/truetype/fonts-japanese-gothic.ttf'
p866
aS'/usr/share/fonts/truetype/liberation/LiberationMono-Bold.ttf'
p867
aS'/usr/share/fonts/truetype/tlwg/Umpush-LightOblique.ttf'
p868
aS'/usr/share/fonts/truetype/freefont/FreeSerifBold.ttf'
p869
aS'/usr/share/fonts/truetype/freefont/FreeMonoBoldOblique.ttf'
p870
aS'/usr/share/fonts/truetype/tlwg/TlwgTypo.ttf'
p871
aS'/usr/share/fonts/truetype/solomos/GFSSolomos.otf'
p872
aS'/usr/share/fonts/truetype/didot/GFSDidotBoldItalic.otf'
p873
aS'/usr/share/fonts/truetype/gentium/GenR102.ttf'
p874
aS'/usr/share/fonts/truetype/ttf-dejavu/DejaVuSerif.ttf'
p875
aS'/usr/share/fonts/truetype/liberation/LiberationSansNarrow-Bold.ttf'
p876
aS'/usr/share/fonts/truetype/freefont/FreeSansOblique.ttf'
p877
aS'/usr/share/fonts/truetype/liberation/LiberationSans-Bold.ttf'
p878
aS'/usr/share/fonts/truetype/ttf-indic-fonts-core/lohit_hi.ttf'
p879
aS'/usr/share/fonts/truetype/liberation/LiberationMono-Regular.ttf'
p880
aS'/usr/share/fonts/truetype/porson/GFSPorson.otf'
p881
aS'/usr/share/fonts/truetype/ubuntu-font-family/Ubuntu-R.ttf'
p882
aS'/usr/share/fonts/truetype/ttf-lyx/eufm10.ttf'
p883
aS'/usr/share/fonts/truetype/tlwg/Garuda.ttf'
p884
aS'/usr/share/fonts/truetype/tlwg/TlwgMono-Oblique.ttf'
p885
aS'/usr/share/fonts/truetype/tlwg/TlwgTypist.ttf'
p886
aS'/usr/share/fonts/truetype/nanum/NanumGothic.ttf'
p887
aS'/usr/share/fonts/truetype/ttf-lyx/wasy10.ttf'
p888
aS'/usr/share/fonts/truetype/kacst/mry_KacstQurn.ttf'
p889
aS'/usr/share/fonts/truetype/tlwg/Purisa-Oblique.ttf'
p890
aS'/usr/share/fonts/truetype/artemisia/GFSArtemisiaBold.otf'
p891
aS'/usr/share/fonts/truetype/ttf-lyx/msbm10.ttf'
p892
aS'/usr/share/fonts/truetype/tlwg/TlwgMono-Bold.ttf'
p893
aS'/usr/share/fonts/truetype/liberation/LiberationMono-Italic.ttf'
p894
aS'/usr/share/fonts/truetype/liberation/LiberationSerif-BoldItalic.ttf'
p895
aS'/usr/share/fonts/truetype/ttf-lyx/cmr10.ttf'
p896
aS'/usr/share/fonts/truetype/liberation/LiberationSerif-Bold.ttf'
p897
aS'/usr/share/fonts/truetype/kacst-one/KacstOne-Bold.ttf'
p898
aS'/usr/share/fonts/truetype/nanum/NanumMyeongjoBold.ttf'
p899
aS'/usr/share/fonts/truetype/tlwg/Waree-Bold.ttf'
p900
aS'/usr/share/fonts/truetype/lao/Phetsarath_OT.ttf'
p901
aS'/usr/share/fonts/truetype/ttf-indic-fonts-core/utkal.ttf'
p902
aS'/usr/share/fonts/truetype/kacst/KacstQurn.ttf'
p903
aS'/usr/share/fonts/truetype/ttf-indic-fonts-core/MuktiNarrow.ttf'
p904
aS'/usr/share/fonts/truetype/takao-gothic/TakaoPGothic.ttf'
p905
aS'/usr/share/fonts/truetype/kacst/KacstScreen.ttf'
p906
aS'/usr/share/fonts/truetype/neohellenic/GFSNeohellenicIt.otf'
p907
aS'/usr/share/fonts/truetype/ttf-indic-fonts-core/Kedage-b.ttf'
p908
aS'/usr/share/fonts/truetype/ttf-dejavu/DejaVuSerif-Bold.ttf'
p909
aS'/usr/share/fonts/truetype/ubuntu-font-family/UbuntuMono-R.ttf'
p910
aS'/usr/share/fonts/truetype/olga/GFSOlga.otf'
p911
aS'/usr/share/fonts/truetype/tlwg/Norasi-Bold.ttf'
p912
aS'/usr/share/fonts/truetype/tlwg/Norasi-BoldItalic.ttf'
p913
aS'/usr/share/fonts/truetype/tlwg/Umpush-Bold.ttf'
p914
aS'/usr/share/fonts/truetype/tlwg/Kinnari-BoldOblique.ttf'
p915
aS'/usr/share/fonts/truetype/liberation/LiberationSans-BoldItalic.ttf'
p916
aS'/usr/share/fonts/truetype/freefont/FreeMono.ttf'
p917
aS'/usr/share/fonts/truetype/ttf-indic-fonts-core/Malige-n.ttf'
p918
aS'/usr/share/fonts/truetype/kacst/KacstNaskh.ttf'
p919
aS'/usr/share/fonts/truetype/ttf-indic-fonts-core/Rekha.ttf'
p920
aS'/usr/share/fonts/truetype/ttf-indic-fonts-core/Vemana.ttf'
p921
aS'/usr/share/fonts/truetype/tlwg/Norasi-BoldOblique.ttf'
p922
aS'/usr/share/fonts/truetype/tlwg/Kinnari-BoldItalic.ttf'
p923
aS'/usr/share/fonts/truetype/tlwg/Sawasdee.ttf'
p924
aS'/usr/share/fonts/truetype/kacst-one/KacstOne.ttf'
p925
aS'/usr/share/fonts/truetype/freefont/FreeSansBold.ttf'
p926
aS'/usr/share/fonts/truetype/ttf-indic-fonts-core/lohit_bn.ttf'
p927
aS'/usr/share/fonts/truetype/ubuntu-font-family/UbuntuMono-RI.ttf'
p928
aS'/usr/share/fonts/truetype/baskerville/GFSBaskerville.otf'
p929
aS'/usr/share/fonts/truetype/tlwg/Umpush-Light.ttf'
p930
aS'/usr/share/fonts/truetype/tlwg/Purisa-Bold.ttf'
p931
aS'/usr/share/fonts/truetype/theokritos/GFSTheokritos.otf'
p932
aS'/usr/share/fonts/truetype/freefont/FreeMonoBold.ttf'
p933
aS'/usr/share/fonts/truetype/ttf-dejavu/DejaVuSans-Bold.ttf'
p934
aS'/usr/share/fonts/truetype/tlwg/TlwgTypist-Bold.ttf'
p935
aS'/usr/share/fonts/truetype/ubuntu-font-family/Ubuntu-L.ttf'
p936
aS'/usr/share/fonts/truetype/kacst/KacstBook.ttf'
p937
aS'/usr/share/fonts/truetype/artemisia/GFSArtemisia.otf'
p938
aS'/usr/share/fonts/truetype/kacst/KacstFarsi.ttf'
p939
aS'/usr/share/fonts/truetype/kacst/KacstPoster.ttf'
p940
aS'/usr/share/fonts/truetype/tlwg/Purisa.ttf'
p941
aS'/usr/share/fonts/truetype/ubuntu-font-family/Ubuntu-LI.ttf'
p942
aS'/usr/share/fonts/truetype/ttf-lyx/cmmi10.ttf'
p943
aS'/usr/share/fonts/truetype/ttf-indic-fonts-core/Pothana2000.ttf'
p944
aS'/usr/share/fonts/truetype/tlwg/Umpush-Oblique.ttf'
p945
aS'/usr/share/fonts/truetype/nanum/NanumGothicBold.ttf'
p946
aS'/usr/share/fonts/truetype/liberation/LiberationMono-BoldItalic.ttf'
p947
aS'/usr/share/fonts/truetype/tlwg/Purisa-BoldOblique.ttf'
p948
aS'/usr/share/fonts/truetype/tlwg/Loma-BoldOblique.ttf'
p949
aS'/usr/share/fonts/truetype/artemisia/GFSArtemisiaBoldIt.otf'
p950
aS'/usr/share/fonts/truetype/tlwg/TlwgTypewriter.ttf'
p951
aS'/usr/share/fonts/truetype/ttf-dejavu/DejaVuSans.ttf'
p952
aS'/usr/share/fonts/truetype/ubuntu-font-family/UbuntuMono-B.ttf'
p953
aS'/usr/share/fonts/truetype/ttf-lyx/esint10.ttf'
p954
aS'/usr/share/fonts/truetype/openoffice/opens___.ttf'
p955
aS'/usr/share/fonts/truetype/gentium/GenAI102.ttf'
p956
aS'/usr/share/fonts/truetype/ttf-indic-fonts-core/gargi.ttf'
p957
aS'/usr/share/fonts/truetype/tlwg/Norasi-Italic.ttf'
p958
aS'/usr/share/fonts/truetype/ubuntu-font-family/Ubuntu-BI.ttf'
p959
aS'/usr/share/fonts/truetype/artemisia/GFSArtemisiaIt.otf'
p960
aS'/usr/share/fonts/truetype/ttf-khmeros-core/KhmerOSsys.ttf'
p961
aS'/usr/share/fonts/truetype/tlwg/TlwgTypist-Oblique.ttf'
p962
aS'/usr/share/fonts/truetype/tlwg/Norasi.ttf'
p963
aS'/usr/share/fonts/truetype/didot/GFSDidotBold.otf'
p964
aS'/usr/share/fonts/truetype/ttf-indic-fonts-core/MuktiNarrowBold.ttf'
p965
aS'/usr/share/fonts/truetype/gentium/GenAR102.ttf'
p966
aS'/usr/share/fonts/truetype/liberation/LiberationSans-Italic.ttf'
p967
aS'/usr/share/fonts/truetype/tlwg/Umpush-BoldOblique.ttf'
p968
aS'/usr/share/fonts/truetype/ubuntu-font-family/Ubuntu-B.ttf'
p969
aS'/usr/share/fonts/truetype/freefont/FreeSansBoldOblique.ttf'
p970
aS'/usr/share/fonts/truetype/tlwg/TlwgTypo-Bold.ttf'
p971
aS'/usr/share/fonts/truetype/ubuntu-font-family/Ubuntu-RI.ttf'
p972
aS'/usr/share/fonts/truetype/tlwg/Waree-Oblique.ttf'
p973
aS'/usr/share/fonts/truetype/liberation/LiberationSerif-Italic.ttf'
p974
aS'/usr/share/fonts/truetype/tlwg/TlwgTypewriter-Bold.ttf'
p975
aS'/usr/share/fonts/truetype/tlwg/Waree-BoldOblique.ttf'
p976
aS'/usr/share/fonts/truetype/freefont/FreeSans.ttf'
p977
aS'/usr/share/fonts/truetype/tlwg/Kinnari-Oblique.ttf'
p978
aS'/usr/share/fonts/truetype/ttf-dejavu/DejaVuSansMono-Bold.ttf'
p979
aS'/usr/share/fonts/truetype/gentium/GenI102.ttf'
p980
aS'/usr/share/fonts/truetype/freefont/FreeSerifBoldItalic.ttf'
p981
aS'/usr/share/fonts/truetype/kacst/KacstArt.ttf'
p982
aS'/usr/share/fonts/truetype/tlwg/Waree.ttf'
p983
aS'/usr/share/fonts/truetype/liberation/LiberationSansNarrow-BoldItalic.ttf'
p984
aS'/usr/share/fonts/truetype/liberation/LiberationSerif-Regular.ttf'
p985
aS'/usr/share/fonts/truetype/didot/GFSDidot.otf'
p986
aS'/usr/share/fonts/truetype/ttf-indic-fonts-core/lohit_ta.ttf'
p987
aS'/usr/share/fonts/truetype/liberation/LiberationSans-Regular.ttf'
p988
aS'/usr/share/fonts/truetype/ubuntu-font-family/Ubuntu-C.ttf'
p989
aS'/usr/share/fonts/truetype/ttf-lyx/cmsy10.ttf'
p990
aS'/usr/share/fonts/truetype/tlwg/Kinnari.ttf'
p991
aS'/usr/share/fonts/truetype/neohellenic/GFSNeohellenic.otf'
p992
aS'/usr/share/fonts/truetype/ubuntu-font-family/UbuntuMono-BI.ttf'
p993
aS'/usr/share/fonts/truetype/gazis/GFSGazis.otf'
p994
aS'/usr/share/fonts/truetype/ttf-indic-fonts-core/Rachana_04.ttf'
p995
aS'/usr/share/fonts/truetype/tlwg/TlwgMono-BoldOblique.ttf'
p996
aS'/usr/share/fonts/truetype/ttf-indic-fonts-core/Kedage-n.ttf'
p997
aS'/usr/share/fonts/truetype/tlwg/Kinnari-Bold.ttf'
p998
aS'/usr/share/fonts/truetype/freefont/FreeMonoOblique.ttf'
p999
aS'/usr/share/fonts/truetype/tlwg/TlwgMono.ttf'
p1000
aS'/usr/share/fonts/truetype/tlwg/TlwgTypewriter-BoldOblique.ttf'
p1001
aS'/usr/share/fonts/truetype/freefont/FreeSerif.ttf'
p1002
aS'/usr/share/fonts/truetype/liberation/LiberationSansNarrow-Regular.ttf'
p1003
aS'/usr/share/fonts/truetype/didot-classic/GFSDidotClassic.otf'
p1004
aS'/usr/share/fonts/truetype/tlwg/Kinnari-Italic.ttf'
p1005
aS'/usr/share/fonts/truetype/tlwg/Sawasdee-BoldOblique.ttf'
p1006
aS'/usr/share/fonts/truetype/tlwg/Sawasdee-Bold.ttf'
p1007
aS'/usr/share/fonts/truetype/kacst/KacstDigital.ttf'
p1008
aS'/usr/share/fonts/truetype/ttf-punjabi-fonts/Saab.ttf'
p1009
aS'/usr/share/fonts/truetype/kacst/KacstOffice.ttf'
p1010
aS'/usr/share/fonts/truetype/didot/GFSDidotItalic.otf'
p1011
aS'/usr/share/fonts/truetype/ttf-indic-fonts-core/lohit_gu.ttf'
p1012
aS'/usr/share/fonts/truetype/tlwg/Sawasdee-Oblique.ttf'
p1013
aS'/usr/share/fonts/truetype/nanum/NanumMyeongjo.ttf'
p1014
aS'/usr/share/fonts/truetype/ttf-khmeros-core/KhmerOS.ttf'
p1015
aS'/usr/share/fonts/truetype/neohellenic/GFSNeohellenicBold.otf'
p1016
aS'/usr/share/fonts/truetype/tlwg/Loma.ttf'
p1017
aS'/usr/share/fonts/truetype/tlwg/Garuda-Oblique.ttf'
p1018
aS'/usr/share/fonts/truetype/bodoni-classic/GFSBodoniClassic.otf'
p1019
aS'/usr/share/fonts/truetype/tlwg/Loma-Bold.ttf'
p1020
aS'/usr/share/fonts/truetype/tlwg/Garuda-BoldOblique.ttf'
p1021
aS'/usr/share/fonts/truetype/kacst/KacstLetter.ttf'
p1022
aS'/usr/share/fonts/truetype/kacst/KacstPen.ttf'
p1023
aS'/usr/share/fonts/truetype/tlwg/TlwgTypo-BoldOblique.ttf'
p1024
aS'/usr/share/fonts/truetype/ttf-lyx/msam10.ttf'
p1025
aS'/usr/share/fonts/truetype/freefont/Untitled1.ttf'
p1026
aS'/usr/share/fonts/truetype/freefont/FreeSerifItalic.ttf'
p1027
aS'/usr/share/fonts/truetype/kacst/KacstTitleL.ttf'
p1028
aS'/usr/share/fonts/truetype/neohellenic/GFSNeohellenicBoldIt.otf'
p1029
aS'/usr/share/fonts/truetype/kacst/KacstDecorative.ttf'
p1030
aS'/usr/share/fonts/truetype/tlwg/TlwgTypewriter-Oblique.ttf'
p1031
aS'/usr/share/fonts/truetype/liberation/LiberationSansNarrow-Italic.ttf'
p1032
aS'/usr/share/fonts/truetype/ttf-lyx/cmex10.ttf'
p1033
asS'_FontManager__default_weight'
p1034
g13
sS'_version'
p1035
I7
sS'ttf_lookup_cache'
p1036
(dp1037
sS'default_size'
p1038
NsS'defaultFont'
p1039
(dp1040
g824
Nsg826
g830
ssS'afmfiles'
p1041
(lp1042
S'/usr/share/matplotlib/mpl-data/fonts/afm/phvl8a.afm'
p1043
aS'/usr/share/matplotlib/mpl-data/fonts/afm/pzcmi8a.afm'
p1044
aS'/usr/share/matplotlib/mpl-data/fonts/pdfcorefonts/Helvetica.afm'
p1045
aS'/usr/share/matplotlib/mpl-data/fonts/afm/pplb8a.afm'
p1046
aS'/usr/share/matplotlib/mpl-data/fonts/afm/putbi8a.afm'
p1047
aS'/usr/share/matplotlib/mpl-data/fonts/afm/psyr.afm'
p1048
aS'/usr/share/matplotlib/mpl-data/fonts/pdfcorefonts/Helvetica-BoldOblique.afm'
p1049
aS'/usr/share/matplotlib/mpl-data/fonts/afm/phvro8an.afm'
p1050
aS'/usr/share/matplotlib/mpl-data/fonts/afm/pbkd8a.afm'
p1051
aS'/usr/share/matplotlib/mpl-data/fonts/afm/pcrbo8a.afm'
p1052
aS'/usr/share/matplotlib/mpl-data/fonts/pdfcorefonts/Helvetica-Bold.afm'
p1053
aS'/usr/share/matplotlib/mpl-data/fonts/pdfcorefonts/Times-BoldItalic.afm'
p1054
aS'/usr/share/matplotlib/mpl-data/fonts/afm/pcrb8a.afm'
p1055
aS'/usr/share/matplotlib/mpl-data/fonts/afm/pagdo8a.afm'
p1056
aS'/usr/share/matplotlib/mpl-data/fonts/afm/putb8a.afm'
p1057
aS'/usr/share/matplotlib/mpl-data/fonts/afm/pagd8a.afm'
p1058
aS'/usr/share/matplotlib/mpl-data/fonts/pdfcorefonts/Courier-Bold.afm'
p1059
aS'/usr/share/matplotlib/mpl-data/fonts/afm/pcrro8a.afm'
p1060
aS'/usr/share/matplotlib/mpl-data/fonts/afm/cmex10.afm'
p1061
aS'/usr/share/matplotlib/mpl-data/fonts/afm/cmtt10.afm'
p1062
aS'/usr/share/matplotlib/mpl-data/fonts/pdfcorefonts/Symbol.afm'
p1063
aS'/usr/share/matplotlib/mpl-data/fonts/afm/phvr8an.afm'
p1064
aS'/usr/share/matplotlib/mpl-data/fonts/afm/phvro8a.afm'
p1065
aS'/usr/share/matplotlib/mpl-data/fonts/afm/ptmr8a.afm'
p1066
aS'/usr/share/matplotlib/mpl-data/fonts/pdfcorefonts/Helvetica-Oblique.afm'
p1067
aS'/usr/share/matplotlib/mpl-data/fonts/afm/pplbi8a.afm'
p1068
aS'/usr/share/matplotlib/mpl-data/fonts/afm/cmsy10.afm'
p1069
aS'/usr/share/matplotlib/mpl-data/fonts/afm/pagk8a.afm'
p1070
aS'/usr/share/matplotlib/mpl-data/fonts/pdfcorefonts/Courier-BoldOblique.afm'
p1071
aS'/usr/share/matplotlib/mpl-data/fonts/afm/pcrr8a.afm'
p1072
aS'/usr/share/matplotlib/mpl-data/fonts/afm/cmmi10.afm'
p1073
aS'/usr/share/matplotlib/mpl-data/fonts/afm/pagko8a.afm'
p1074
aS'/usr/share/matplotlib/mpl-data/fonts/afm/pbkdi8a.afm'
p1075
aS'/usr/share/matplotlib/mpl-data/fonts/afm/phvbo8a.afm'
p1076
aS'/usr/share/matplotlib/mpl-data/fonts/afm/cmr10.afm'
p1077
aS'/usr/share/matplotlib/mpl-data/fonts/pdfcorefonts/Times-Bold.afm'
p1078
aS'/usr/share/matplotlib/mpl-data/fonts/afm/pncb8a.afm'
p1079
aS'/usr/share/matplotlib/mpl-data/fonts/afm/phvlo8a.afm'
p1080
aS'/usr/share/matplotlib/mpl-data/fonts/afm/phvb8a.afm'
p1081
aS'/usr/share/matplotlib/mpl-data/fonts/afm/pzdr.afm'
p1082
aS'/usr/share/matplotlib/mpl-data/fonts/afm/ptmri8a.afm'
p1083
aS'/usr/share/matplotlib/mpl-data/fonts/afm/pplr8a.afm'
p1084
aS'/usr/share/matplotlib/mpl-data/fonts/afm/pbkl8a.afm'
p1085
aS'/usr/share/matplotlib/mpl-data/fonts/afm/pncbi8a.afm'
p1086
aS'/usr/share/matplotlib/mpl-data/fonts/pdfcorefonts/ZapfDingbats.afm'
p1087
aS'/usr/share/matplotlib/mpl-data/fonts/afm/ptmb8a.afm'
p1088
aS'/usr/share/matplotlib/mpl-data/fonts/afm/putri8a.afm'
p1089
aS'/usr/share/matplotlib/mpl-data/fonts/afm/pplri8a.afm'
p1090
aS'/usr/share/matplotlib/mpl-data/fonts/afm/ptmbi8a.afm'
p1091
aS'/usr/share/matplotlib/mpl-data/fonts/afm/pbkli8a.afm'
p1092
aS'/usr/share/matplotlib/mpl-data/fonts/pdfcorefonts/Courier-Oblique.afm'
p1093
aS'/usr/share/matplotlib/mpl-data/fonts/afm/putr8a.afm'
p1094
aS'/usr/share/matplotlib/mpl-data/fonts/afm/pncri8a.afm'
p1095
aS'/usr/share/matplotlib/mpl-data/fonts/afm/pncr8a.afm'
p1096
aS'/usr/share/matplotlib/mpl-data/fonts/pdfcorefonts/Times-Italic.afm'
p1097
aS'/usr/share/matplotlib/mpl-data/fonts/pdfcorefonts/Times-Roman.afm'
p1098
aS'/usr/share/matplotlib/mpl-data/fonts/afm/phvbo8an.afm'
p1099
aS'/usr/share/matplotlib/mpl-data/fonts/pdfcorefonts/Courier.afm'
p1100
aS'/usr/share/matplotlib/mpl-data/fonts/afm/phvr8a.afm'
p1101
aS'/usr/share/matplotlib/mpl-data/fonts/afm/phvb8an.afm'
p1102
aS'/usr/share/fonts/X11/Type1/lmtt10.afm'
p1103
aS'/usr/share/fonts/X11/Type1/qcsri.afm'
p1104
aS'/usr/share/fonts/X11/Type1/lmssqo8.afm'
p1105
aS'/usr/share/fonts/type1/gsfonts/b018015l.afm'
p1106
aS'/usr/share/fonts/X11/Type1/lmbxo10.afm'
p1107
aS'/usr/share/fonts/type1/gsfonts/n022024l.afm'
p1108
aS'/usr/share/fonts/X11/Type1/lmtlc10.afm'
p1109
aS'/usr/share/fonts/type1/gsfonts/n019004l.afm'
p1110
aS'/usr/share/fonts/X11/Type1/lmtk10.afm'
p1111
aS'/usr/share/fonts/X11/Type1/qbkr.afm'
p1112
aS'/usr/share/fonts/X11/Type1/lmdunh10.afm'
p1113
aS'/usr/share/fonts/type1/gsfonts/n019003l.afm'
p1114
aS'/usr/share/fonts/type1/gsfonts/p052004l.afm'
p1115
aS'/usr/share/fonts/type1/gsfonts/a010015l.afm'
p1116
aS'/usr/share/fonts/X11/Type1/qcrr.afm'
p1117
aS'/usr/share/fonts/type1/gsfonts/c059036l.afm'
p1118
aS'/usr/share/fonts/X11/Type1/qtmb.afm'
p1119
aS'/usr/share/fonts/X11/Type1/qhvcb.afm'
p1120
aS'/usr/share/fonts/X11/Type1/lmssbx10.afm'
p1121
aS'/usr/share/fonts/X11/Type1/lmvtlo10.afm'
p1122
aS'/usr/share/fonts/X11/Type1/lmtcso10.afm'
p1123
aS'/usr/share/fonts/X11/Type1/lmtti10.afm'
p1124
aS'/usr/share/fonts/X11/Type1/c0419bt_.afm'
p1125
aS'/usr/share/fonts/type1/gsfonts/n021024l.afm'
p1126
aS'/usr/share/fonts/type1/gsfonts/n019024l.afm'
p1127
aS'/usr/share/fonts/X11/Type1/qhvbi.afm'
p1128
aS'/usr/share/fonts/X11/Type1/qcsb.afm'
p1129
aS'/usr/share/fonts/X11/Type1/lmbx10.afm'
p1130
aS'/usr/share/fonts/type1/gsfonts/d050000l.afm'
p1131
aS'/usr/share/fonts/X11/Type1/lmssdo10.afm'
p1132
aS'/usr/share/fonts/X11/Type1/lmssqbx8.afm'
p1133
aS'/usr/share/fonts/X11/Type1/qhvb.afm'
p1134
aS'/usr/share/fonts/X11/Type1/lmb10.afm'
p1135
aS'/usr/share/fonts/X11/Type1/c0648bt_.afm'
p1136
aS'/usr/share/fonts/type1/gsfonts/z003034l.afm'
p1137
aS'/usr/share/fonts/X11/Type1/qhvr.afm'
p1138
aS'/usr/share/fonts/X11/Type1/lmbxi10.afm'
p1139
aS'/usr/share/fonts/type1/gsfonts/b018012l.afm'
p1140
aS'/usr/share/fonts/X11/Type1/lmro10.afm'
p1141
aS'/usr/share/fonts/X11/Type1/qplr.afm'
p1142
aS'/usr/share/fonts/X11/Type1/qcsr.afm'
p1143
aS'/usr/share/fonts/type1/gsfonts/a010013l.afm'
p1144
aS'/usr/share/fonts/X11/Type1/c0583bt_.afm'
p1145
aS'/usr/share/fonts/X11/Type1/qagri.afm'
p1146
aS'/usr/share/fonts/X11/Type1/qbkbi.afm'
p1147
aS'/usr/share/fonts/X11/Type1/lmcsc10.afm'
p1148
aS'/usr/share/fonts/type1/gsfonts/n019063l.afm'
p1149
aS'/usr/share/fonts/X11/Type1/qcrbi.afm'
p1150
aS'/usr/share/fonts/X11/Type1/qcrb.afm'
p1151
aS'/usr/share/fonts/X11/Type1/lmssqbo8.afm'
p1152
aS'/usr/share/fonts/type1/gsfonts/p052003l.afm'
p1153
aS'/usr/share/fonts/type1/gsfonts/b018032l.afm'
p1154
aS'/usr/share/fonts/X11/Type1/lmvtk10.afm'
p1155
aS'/usr/share/fonts/type1/gsfonts/n021023l.afm'
p1156
aS'/usr/share/fonts/X11/Type1/qhvri.afm'
p1157
aS'/usr/share/fonts/X11/Type1/lmtlo10.afm'
p1158
aS'/usr/share/fonts/X11/Type1/lmvtl10.afm'
p1159
aS'/usr/share/fonts/type1/gsfonts/n021003l.afm'
p1160
aS'/usr/share/fonts/X11/Type1/c0611bt_.afm'
p1161
aS'/usr/share/fonts/type1/gsfonts/s050000l.afm'
p1162
aS'/usr/share/fonts/type1/gsfonts/n021004l.afm'
p1163
aS'/usr/share/fonts/type1/gsfonts/p052024l.afm'
p1164
aS'/usr/share/fonts/X11/Type1/qtmri.afm'
p1165
aS'/usr/share/fonts/X11/Type1/qbkb.afm'
p1166
aS'/usr/share/fonts/type1/gsfonts/c059013l.afm'
p1167
aS'/usr/share/fonts/X11/Type1/qtmr.afm'
p1168
aS'/usr/share/fonts/X11/Type1/lmtcsc10.afm'
p1169
aS'/usr/share/fonts/X11/Type1/lmcsco10.afm'
p1170
aS'/usr/share/fonts/X11/Type1/qagb.afm'
p1171
aS'/usr/share/fonts/X11/Type1/c0633bt_.afm'
p1172
aS'/usr/share/fonts/X11/Type1/lmvtto10.afm'
p1173
aS'/usr/share/fonts/X11/Type1/lmss10.afm'
p1174
aS'/usr/share/fonts/X11/Type1/lmvtt10.afm'
p1175
aS'/usr/share/fonts/type1/gsfonts/b018035l.afm'
p1176
aS'/usr/share/fonts/X11/Type1/lmduno10.afm'
p1177
aS'/usr/share/fonts/X11/Type1/qtmbi.afm'
p1178
aS'/usr/share/fonts/X11/Type1/qcsbi.afm'
p1179
aS'/usr/share/fonts/type1/gsfonts/n022004l.afm'
p1180
aS'/usr/share/fonts/type1/mathml/Symbol.afm'
p1181
aS'/usr/share/fonts/X11/Type1/qhvcbi.afm'
p1182
aS'/usr/share/fonts/X11/Type1/lmri10.afm'
p1183
aS'/usr/share/fonts/X11/Type1/Symbol.afm'
p1184
aS'/usr/share/fonts/X11/Type1/lmr10.afm'
p1185
aS'/usr/share/fonts/X11/Type1/c0649bt_.afm'
p1186
aS'/usr/share/fonts/X11/Type1/lmtl10.afm'
p1187
aS'/usr/share/fonts/X11/Type1/qplri.afm'
p1188
aS'/usr/share/fonts/X11/Type1/qagbi.afm'
p1189
aS'/usr/share/fonts/X11/Type1/qhvcr.afm'
p1190
aS'/usr/share/fonts/X11/Type1/lmtlco10.afm'
p1191
aS'/usr/share/fonts/type1/gsfonts/c059016l.afm'
p1192
aS'/usr/share/fonts/X11/Type1/qplb.afm'
p1193
aS'/usr/share/fonts/type1/gsfonts/n019044l.afm'
p1194
aS'/usr/share/fonts/type1/gsfonts/n022003l.afm'
p1195
aS'/usr/share/fonts/type1/gsfonts/a010033l.afm'
p1196
aS'/usr/share/fonts/X11/Type1/lmvtko10.afm'
p1197
aS'/usr/share/fonts/type1/gsfonts/c059033l.afm'
p1198
aS'/usr/share/fonts/X11/Type1/qcrri.afm'
p1199
aS'/usr/share/fonts/type1/gsfonts/n019064l.afm'
p1200
aS'/usr/share/fonts/X11/Type1/c0582bt_.afm'
p1201
aS'/usr/share/fonts/X11/Type1/lmssq8.afm'
p1202
aS'/usr/share/fonts/X11/Type1/lmssbo10.afm'
p1203
aS'/usr/share/fonts/X11/Type1/qagr.afm'
p1204
aS'/usr/share/fonts/type1/gsfonts/n019043l.afm'
p1205
aS'/usr/share/fonts/type1/gsfonts/n019023l.afm'
p1206
aS'/usr/share/fonts/X11/Type1/lmtko10.afm'
p1207
aS'/usr/share/fonts/X11/Type1/lmsso10.afm'
p1208
aS'/usr/share/fonts/X11/Type1/lmbo10.afm'
p1209
aS'/usr/share/fonts/type1/gsfonts/p052023l.afm'
p1210
aS'/usr/share/fonts/X11/Type1/qplbi.afm'
p1211
aS'/usr/share/fonts/X11/Type1/lmssdc10.afm'
p1212
aS'/usr/share/fonts/X11/Type1/lmtto10.afm'
p1213
aS'/usr/share/fonts/type1/gsfonts/n022023l.afm'
p1214
aS'/usr/share/fonts/X11/Type1/qhvcri.afm'
p1215
aS'/usr/share/fonts/type1/gsfonts/a010035l.afm'
p1216
aS'/usr/share/fonts/X11/Type1/qbkri.afm'
p1217
aS'/usr/share/fonts/X11/Type1/c0632bt_.afm'
p1218
aS'/usr/share/fonts/X11/Type1/lmu10.afm'
p1219
asS'afmlist'
p1220
(lp1221
g7
(g8
g9
NtRp1222
(dp1223
g12
g13
sg14
S'Helvetica'
p1224
sg16
I200
sg17
g13
sg18
g13
sg19
g1043
sg21
g22
sbag7
(g8
g9
NtRp1225
(dp1226
g12
g29
sg14
S'ITC Zapf Chancery'
p1227
sg16
I500
sg17
g13
sg18
g13
sg19
g1044
sg21
g22
sbag7
(g8
g9
NtRp1228
(dp1229
g12
g13
sg14
S'Helvetica'
p1230
sg16
I500
sg17
g13
sg18
g13
sg19
g1045
sg21
g22
sbag7
(g8
g9
NtRp1231
(dp1232
g12
g13
sg14
S'Palatino'
p1233
sg16
I700
sg17
g13
sg18
g13
sg19
g1046
sg21
g22
sbag7
(g8
g9
NtRp1234
(dp1235
g12
g29
sg14
S'Utopia'
p1236
sg16
I700
sg17
g13
sg18
g13
sg19
g1047
sg21
g22
sbag7
(g8
g9
NtRp1237
(dp1238
g12
g13
sg14
S'Symbol'
p1239
sg16
I500
sg17
g13
sg18
g13
sg19
g1048
sg21
g22
sbag7
(g8
g9
NtRp1240
(dp1241
g12
g29
sg14
S'Helvetica'
p1242
sg16
I700
sg17
g13
sg18
g13
sg19
g1049
sg21
g22
sbag7
(g8
g9
NtRp1243
(dp1244
g12
g29
sg14
S'Helvetica'
p1245
sg16
I500
sg17
g208
sg18
g13
sg19
g1050
sg21
g22
sbag7
(g8
g9
NtRp1246
(dp1247
g12
g13
sg14
S'ITC Bookman'
p1248
sg16
I600
sg17
g13
sg18
g13
sg19
g1051
sg21
g22
sbag7
(g8
g9
NtRp1249
(dp1250
g12
g29
sg14
S'Courier'
p1251
sg16
I700
sg17
g13
sg18
g13
sg19
g1052
sg21
g22
sbag7
(g8
g9
NtRp1252
(dp1253
g12
g13
sg14
S'Helvetica'
p1254
sg16
I700
sg17
g13
sg18
g13
sg19
g1053
sg21
g22
sbag7
(g8
g9
NtRp1255
(dp1256
g12
g29
sg14
S'Times'
p1257
sg16
I700
sg17
g13
sg18
g13
sg19
g1054
sg21
g22
sbag7
(g8
g9
NtRp1258
(dp1259
g12
g13
sg14
S'Courier'
p1260
sg16
I700
sg17
g13
sg18
g13
sg19
g1055
sg21
g22
sbag7
(g8
g9
NtRp1261
(dp1262
g12
g29
sg14
S'ITC Avant Garde Gothic'
p1263
sg16
I600
sg17
g13
sg18
g13
sg19
g1056
sg21
g22
sbag7
(g8
g9
NtRp1264
(dp1265
g12
g13
sg14
S'Utopia'
p1266
sg16
I700
sg17
g13
sg18
g13
sg19
g1057
sg21
g22
sbag7
(g8
g9
NtRp1267
(dp1268
g12
g13
sg14
S'ITC Avant Garde Gothic'
p1269
sg16
I600
sg17
g13
sg18
g13
sg19
g1058
sg21
g22
sbag7
(g8
g9
NtRp1270
(dp1271
g12
g13
sg14
S'Courier'
p1272
sg16
I700
sg17
g13
sg18
g13
sg19
g1059
sg21
g22
sbag7
(g8
g9
NtRp1273
(dp1274
g12
g29
sg14
S'Courier'
p1275
sg16
I500
sg17
g13
sg18
g13
sg19
g1060
sg21
g22
sbag7
(g8
g9
NtRp1276
(dp1277
g12
g13
sg14
S'Computer Modern'
p1278
sg16
I500
sg17
g13
sg18
g13
sg19
g1061
sg21
g22
sbag7
(g8
g9
NtRp1279
(dp1280
g12
g13
sg14
S'Computer Modern'
p1281
sg16
I500
sg17
g13
sg18
g13
sg19
g1062
sg21
g22
sbag7
(g8
g9
NtRp1282
(dp1283
g12
g13
sg14
S'Symbol'
p1284
sg16
I500
sg17
g13
sg18
g13
sg19
g1063
sg21
g22
sbag7
(g8
g9
NtRp1285
(dp1286
g12
g13
sg14
S'Helvetica'
p1287
sg16
I500
sg17
g208
sg18
g13
sg19
g1064
sg21
g22
sbag7
(g8
g9
NtRp1288
(dp1289
g12
g29
sg14
S'Helvetica'
p1290
sg16
I500
sg17
g13
sg18
g13
sg19
g1065
sg21
g22
sbag7
(g8
g9
NtRp1291
(dp1292
g12
g13
sg14
S'Times'
p1293
sg16
I500
sg17
g13
sg18
g13
sg19
g1066
sg21
g22
sbag7
(g8
g9
NtRp1294
(dp1295
g12
g29
sg14
S'Helvetica'
p1296
sg16
I500
sg17
g13
sg18
g13
sg19
g1067
sg21
g22
sbag7
(g8
g9
NtRp1297
(dp1298
g12
g29
sg14
S'Palatino'
p1299
sg16
I700
sg17
g13
sg18
g13
sg19
g1068
sg21
g22
sbag7
(g8
g9
NtRp1300
(dp1301
g12
g29
sg14
S'Computer Modern'
p1302
sg16
I500
sg17
g13
sg18
g13
sg19
g1069
sg21
g22
sbag7
(g8
g9
NtRp1303
(dp1304
g12
g13
sg14
S'ITC Avant Garde Gothic'
p1305
sg16
I400
sg17
g13
sg18
g13
sg19
g1070
sg21
g22
sbag7
(g8
g9
NtRp1306
(dp1307
g12
g29
sg14
S'Courier'
p1308
sg16
I700
sg17
g13
sg18
g13
sg19
g1071
sg21
g22
sbag7
(g8
g9
NtRp1309
(dp1310
g12
g13
sg14
S'Courier'
p1311
sg16
I500
sg17
g13
sg18
g13
sg19
g1072
sg21
g22
sbag7
(g8
g9
NtRp1312
(dp1313
g12
g29
sg14
S'Computer Modern'
p1314
sg16
I500
sg17
g13
sg18
g13
sg19
g1073
sg21
g22
sbag7
(g8
g9
NtRp1315
(dp1316
g12
g29
sg14
S'ITC Avant Garde Gothic'
p1317
sg16
I400
sg17
g13
sg18
g13
sg19
g1074
sg21
g22
sbag7
(g8
g9
NtRp1318
(dp1319
g12
g29
sg14
S'ITC Bookman'
p1320
sg16
I600
sg17
g13
sg18
g13
sg19
g1075
sg21
g22
sbag7
(g8
g9
NtRp1321
(dp1322
g12
g29
sg14
S'Helvetica'
p1323
sg16
I700
sg17
g13
sg18
g13
sg19
g1076
sg21
g22
sbag7
(g8
g9
NtRp1324
(dp1325
g12
g13
sg14
S'Computer Modern'
p1326
sg16
I500
sg17
g13
sg18
g13
sg19
g1077
sg21
g22
sbag7
(g8
g9
NtRp1327
(dp1328
g12
g13
sg14
S'Times'
p1329
sg16
I700
sg17
g13
sg18
g13
sg19
g1078
sg21
g22
sbag7
(g8
g9
NtRp1330
(dp1331
g12
g13
sg14
S'New Century Schoolbook'
p1332
sg16
I700
sg17
g13
sg18
g13
sg19
g1079
sg21
g22
sbag7
(g8
g9
NtRp1333
(dp1334
g12
g29
sg14
S'Helvetica'
p1335
sg16
I200
sg17
g13
sg18
g13
sg19
g1080
sg21
g22
sbag7
(g8
g9
NtRp1336
(dp1337
g12
g13
sg14
S'Helvetica'
p1338
sg16
I700
sg17
g13
sg18
g13
sg19
g1081
sg21
g22
sbag7
(g8
g9
NtRp1339
(dp1340
g12
g13
sg14
S'ITC Zapf Dingbats'
p1341
sg16
I500
sg17
g13
sg18
g13
sg19
g1082
sg21
g22
sbag7
(g8
g9
NtRp1342
(dp1343
g12
g29
sg14
S'Times'
p1344
sg16
I500
sg17
g13
sg18
g13
sg19
g1083
sg21
g22
sbag7
(g8
g9
NtRp1345
(dp1346
g12
g13
sg14
S'Palatino'
p1347
sg16
I500
sg17
g13
sg18
g13
sg19
g1084
sg21
g22
sbag7
(g8
g9
NtRp1348
(dp1349
g12
g13
sg14
S'ITC Bookman'
p1350
sg16
I200
sg17
g13
sg18
g13
sg19
g1085
sg21
g22
sbag7
(g8
g9
NtRp1351
(dp1352
g12
g29
sg14
S'New Century Schoolbook'
p1353
sg16
I700
sg17
g13
sg18
g13
sg19
g1086
sg21
g22
sbag7
(g8
g9
NtRp1354
(dp1355
g12
g13
sg14
S'ZapfDingbats'
p1356
sg16
I500
sg17
g13
sg18
g13
sg19
g1087
sg21
g22
sbag7
(g8
g9
NtRp1357
(dp1358
g12
g13
sg14
S'Times'
p1359
sg16
I700
sg17
g13
sg18
g13
sg19
g1088
sg21
g22
sbag7
(g8
g9
NtRp1360
(dp1361
g12
g29
sg14
S'Utopia'
p1362
sg16
I400
sg17
g13
sg18
g13
sg19
g1089
sg21
g22
sbag7
(g8
g9
NtRp1363
(dp1364
g12
g29
sg14
S'Palatino'
p1365
sg16
I500
sg17
g13
sg18
g13
sg19
g1090
sg21
g22
sbag7
(g8
g9
NtRp1366
(dp1367
g12
g29
sg14
S'Times'
p1368
sg16
I700
sg17
g13
sg18
g13
sg19
g1091
sg21
g22
sbag7
(g8
g9
NtRp1369
(dp1370
g12
g29
sg14
S'ITC Bookman'
p1371
sg16
I200
sg17
g13
sg18
g13
sg19
g1092
sg21
g22
sbag7
(g8
g9
NtRp1372
(dp1373
g12
g29
sg14
S'Courier'
p1374
sg16
I500
sg17
g13
sg18
g13
sg19
g1093
sg21
g22
sbag7
(g8
g9
NtRp1375
(dp1376
g12
g13
sg14
S'Utopia'
p1377
sg16
I400
sg17
g13
sg18
g13
sg19
g1094
sg21
g22
sbag7
(g8
g9
NtRp1378
(dp1379
g12
g29
sg14
S'New Century Schoolbook'
p1380
sg16
I500
sg17
g13
sg18
g13
sg19
g1095
sg21
g22
sbag7
(g8
g9
NtRp1381
(dp1382
g12
g13
sg14
S'New Century Schoolbook'
p1383
sg16
I500
sg17
g13
sg18
g13
sg19
g1096
sg21
g22
sbag7
(g8
g9
NtRp1384
(dp1385
g12
g29
sg14
S'Times'
p1386
sg16
I500
sg17
g13
sg18
g13
sg19
g1097
sg21
g22
sbag7
(g8
g9
NtRp1387
(dp1388
g12
g13
sg14
S'Times'
p1389
sg16
I500
sg17
g13
sg18
g13
sg19
g1098
sg21
g22
sbag7
(g8
g9
NtRp1390
(dp1391
g12
g29
sg14
S'Helvetica'
p1392
sg16
I700
sg17
g208
sg18
g13
sg19
g1099
sg21
g22
sbag7
(g8
g9
NtRp1393
(dp1394
g12
g13
sg14
S'Courier'
p1395
sg16
I500
sg17
g13
sg18
g13
sg19
g1100
sg21
g22
sbag7
(g8
g9
NtRp1396
(dp1397
g12
g13
sg14
S'Helvetica'
p1398
sg16
I500
sg17
g13
sg18
g13
sg19
g1101
sg21
g22
sbag7
(g8
g9
NtRp1399
(dp1400
g12
g13
sg14
S'Helvetica'
p1401
sg16
I700
sg17
g208
sg18
g13
sg19
g1102
sg21
g22
sbag7
(g8
g9
NtRp1402
(dp1403
g12
g13
sg14
S'LMMono10'
p1404
sg16
I400
sg17
g13
sg18
g13
sg19
g1103
sg21
g22
sbag7
(g8
g9
NtRp1405
(dp1406
g12
g29
sg14
S'TeXGyreSchola'
p1407
sg16
I400
sg17
g13
sg18
g13
sg19
g1104
sg21
g22
sbag7
(g8
g9
NtRp1408
(dp1409
g12
g29
sg14
S'LMSansQuot8'
p1410
sg16
I400
sg17
g13
sg18
g13
sg19
g1105
sg21
g22
sbag7
(g8
g9
NtRp1411
(dp1412
g12
g13
sg14
S'URW Bookman L'
p1413
sg16
I700
sg17
g13
sg18
g13
sg19
g1106
sg21
g22
sbag7
(g8
g9
NtRp1414
(dp1415
g12
g29
sg14
S'LMRomanSlant10'
p1416
sg16
I700
sg17
g13
sg18
g13
sg19
g1107
sg21
g22
sbag7
(g8
g9
NtRp1417
(dp1418
g12
g29
sg14
S'Nimbus Mono L'
p1419
sg16
I700
sg17
g13
sg18
g13
sg19
g1108
sg21
g22
sbag7
(g8
g9
NtRp1420
(dp1421
g12
g13
sg14
S'LMMonoLtCond10'
p1422
sg16
I200
sg17
g208
sg18
g13
sg19
g1109
sg21
g22
sbag7
(g8
g9
NtRp1423
(dp1424
g12
g13
sg14
S'Nimbus Sans L'
p1425
sg16
I700
sg17
g13
sg18
g13
sg19
g1110
sg21
g22
sbag7
(g8
g9
NtRp1426
(dp1427
g12
g13
sg14
S'LMMonoLt10'
p1428
sg16
I700
sg17
g13
sg18
g13
sg19
g1111
sg21
g22
sbag7
(g8
g9
NtRp1429
(dp1430
g12
g13
sg14
S'TeXGyreBonum'
p1431
sg16
I400
sg17
g13
sg18
g13
sg19
g1112
sg21
g22
sbag7
(g8
g9
NtRp1432
(dp1433
g12
g13
sg14
S'LMRomanDunh10'
p1434
sg16
I400
sg17
g13
sg18
g13
sg19
g1113
sg21
g22
sbag7
(g8
g9
NtRp1435
(dp1436
g12
g13
sg14
S'Nimbus Sans L'
p1437
sg16
I400
sg17
g13
sg18
g13
sg19
g1114
sg21
g22
sbag7
(g8
g9
NtRp1438
(dp1439
g12
g13
sg14
S'URW Palladio L'
p1440
sg16
I700
sg17
g13
sg18
g13
sg19
g1115
sg21
g22
sbag7
(g8
g9
NtRp1441
(dp1442
g12
g13
sg14
S'URW Gothic L'
p1443
sg16
I600
sg17
g13
sg18
g13
sg19
g1116
sg21
g22
sbag7
(g8
g9
NtRp1444
(dp1445
g12
g13
sg14
S'TeXGyreCursor'
p1446
sg16
I400
sg17
g13
sg18
g13
sg19
g1117
sg21
g22
sbag7
(g8
g9
NtRp1447
(dp1448
g12
g29
sg14
S'Century Schoolbook L'
p1449
sg16
I700
sg17
g13
sg18
g13
sg19
g1118
sg21
g22
sbag7
(g8
g9
NtRp1450
(dp1451
g12
g13
sg14
S'TeXGyreTermes'
p1452
sg16
I700
sg17
g13
sg18
g13
sg19
g1119
sg21
g22
sbag7
(g8
g9
NtRp1453
(dp1454
g12
g13
sg14
S'TeXGyreHerosCondensed'
p1455
sg16
I700
sg17
g208
sg18
g13
sg19
g1120
sg21
g22
sbag7
(g8
g9
NtRp1456
(dp1457
g12
g13
sg14
S'LMSans10'
p1458
sg16
I700
sg17
g13
sg18
g13
sg19
g1121
sg21
g22
sbag7
(g8
g9
NtRp1459
(dp1460
g12
g29
sg14
S'LMMonoPropLt10'
p1461
sg16
I200
sg17
g13
sg18
g13
sg19
g1122
sg21
g22
sbag7
(g8
g9
NtRp1462
(dp1463
g12
g29
sg14
S'LMMonoCaps10'
p1464
sg16
I400
sg17
g13
sg18
g13
sg19
g1123
sg21
g22
sbag7
(g8
g9
NtRp1465
(dp1466
g12
g29
sg14
S'LMMono10'
p1467
sg16
I400
sg17
g13
sg18
g13
sg19
g1124
sg21
g22
sbag7
(g8
g9
NtRp1468
(dp1469
g12
g13
sg14
S'Courier 10 Pitch'
p1470
sg16
I400
sg17
g13
sg18
g13
sg19
g1125
sg21
g22
sbag7
(g8
g9
NtRp1471
(dp1472
g12
g29
sg14
S'Nimbus Roman No9 L'
p1473
sg16
I700
sg17
g13
sg18
g13
sg19
g1126
sg21
g22
sbag7
(g8
g9
NtRp1474
(dp1475
g12
g29
sg14
S'Nimbus Sans L'
p1476
sg16
I700
sg17
g13
sg18
g13
sg19
g1127
sg21
g22
sbag7
(g8
g9
NtRp1477
(dp1478
g12
g29
sg14
S'TeXGyreHeros'
p1479
sg16
I700
sg17
g13
sg18
g13
sg19
g1128
sg21
g22
sbag7
(g8
g9
NtRp1480
(dp1481
g12
g13
sg14
S'TeXGyreSchola'
p1482
sg16
I700
sg17
g13
sg18
g13
sg19
g1129
sg21
g22
sbag7
(g8
g9
NtRp1483
(dp1484
g12
g13
sg14
S'LMRoman10'
p1485
sg16
I700
sg17
g13
sg18
g13
sg19
g1130
sg21
g22
sbag7
(g8
g9
NtRp1486
(dp1487
g12
g13
sg14
S'Dingbats'
p1488
sg16
I400
sg17
g13
sg18
g13
sg19
g1131
sg21
g22
sbag7
(g8
g9
NtRp1489
(dp1490
g12
g29
sg14
S'LMSansDemiCond10'
p1491
sg16
I600
sg17
g208
sg18
g13
sg19
g1132
sg21
g22
sbag7
(g8
g9
NtRp1492
(dp1493
g12
g13
sg14
S'LMSansQuot8'
p1494
sg16
I700
sg17
g13
sg18
g13
sg19
g1133
sg21
g22
sbag7
(g8
g9
NtRp1495
(dp1496
g12
g13
sg14
S'TeXGyreHeros'
p1497
sg16
I700
sg17
g13
sg18
g13
sg19
g1134
sg21
g22
sbag7
(g8
g9
NtRp1498
(dp1499
g12
g13
sg14
S'LMRomanDemi10'
p1500
sg16
I600
sg17
g13
sg18
g13
sg19
g1135
sg21
g22
sbag7
(g8
g9
NtRp1501
(dp1502
g12
g13
sg14
S'Bitstream Charter'
p1503
sg16
I400
sg17
g13
sg18
g13
sg19
g1136
sg21
g22
sbag7
(g8
g9
NtRp1504
(dp1505
g12
g29
sg14
S'URW Chancery L'
p1506
sg16
I500
sg17
g13
sg18
g13
sg19
g1137
sg21
g22
sbag7
(g8
g9
NtRp1507
(dp1508
g12
g13
sg14
S'TeXGyreHeros'
p1509
sg16
I400
sg17
g13
sg18
g13
sg19
g1138
sg21
g22
sbag7
(g8
g9
NtRp1510
(dp1511
g12
g29
sg14
S'LMRoman10'
p1512
sg16
I700
sg17
g13
sg18
g13
sg19
g1139
sg21
g22
sbag7
(g8
g9
NtRp1513
(dp1514
g12
g13
sg14
S'URW Bookman L'
p1515
sg16
I400
sg17
g13
sg18
g13
sg19
g1140
sg21
g22
sbag7
(g8
g9
NtRp1516
(dp1517
g12
g29
sg14
S'LMRomanSlant10'
p1518
sg16
I400
sg17
g13
sg18
g13
sg19
g1141
sg21
g22
sbag7
(g8
g9
NtRp1519
(dp1520
g12
g13
sg14
S'TeXGyrePagella'
p1521
sg16
I400
sg17
g13
sg18
g13
sg19
g1142
sg21
g22
sbag7
(g8
g9
NtRp1522
(dp1523
g12
g13
sg14
S'TeXGyreSchola'
p1524
sg16
I400
sg17
g13
sg18
g13
sg19
g1143
sg21
g22
sbag7
(g8
g9
NtRp1525
(dp1526
g12
g13
sg14
S'URW Gothic L'
p1527
sg16
I400
sg17
g13
sg18
g13
sg19
g1144
sg21
g22
sbag7
(g8
g9
NtRp1528
(dp1529
g12
g13
sg14
S'Courier 10 Pitch'
p1530
sg16
I700
sg17
g13
sg18
g13
sg19
g1145
sg21
g22
sbag7
(g8
g9
NtRp1531
(dp1532
g12
g29
sg14
S'TeXGyreAdventor'
p1533
sg16
I400
sg17
g13
sg18
g13
sg19
g1146
sg21
g22
sbag7
(g8
g9
NtRp1534
(dp1535
g12
g29
sg14
S'TeXGyreBonum'
p1536
sg16
I700
sg17
g13
sg18
g13
sg19
g1147
sg21
g22
sbag7
(g8
g9
NtRp1537
(dp1538
g12
g13
sg14
S'LMRomanCaps10'
p1539
sg16
I400
sg17
g13
sg18
g13
sg19
g1148
sg21
g22
sbag7
(g8
g9
NtRp1540
(dp1541
g12
g29
sg14
S'Nimbus Sans L'
p1542
sg16
I400
sg17
g208
sg18
g13
sg19
g1149
sg21
g22
sbag7
(g8
g9
NtRp1543
(dp1544
g12
g29
sg14
S'TeXGyreCursor'
p1545
sg16
I700
sg17
g13
sg18
g13
sg19
g1150
sg21
g22
sbag7
(g8
g9
NtRp1546
(dp1547
g12
g13
sg14
S'TeXGyreCursor'
p1548
sg16
I700
sg17
g13
sg18
g13
sg19
g1151
sg21
g22
sbag7
(g8
g9
NtRp1549
(dp1550
g12
g29
sg14
S'LMSansQuot8'
p1551
sg16
I700
sg17
g13
sg18
g13
sg19
g1152
sg21
g22
sbag7
(g8
g9
NtRp1552
(dp1553
g12
g13
sg14
S'URW Palladio L'
p1554
sg16
I500
sg17
g13
sg18
g13
sg19
g1153
sg21
g22
sbag7
(g8
g9
NtRp1555
(dp1556
g12
g29
sg14
S'URW Bookman L'
p1557
sg16
I400
sg17
g13
sg18
g13
sg19
g1154
sg21
g22
sbag7
(g8
g9
NtRp1558
(dp1559
g12
g13
sg14
S'LMMonoPropLt10'
p1560
sg16
I700
sg17
g13
sg18
g13
sg19
g1155
sg21
g22
sbag7
(g8
g9
NtRp1561
(dp1562
g12
g29
sg14
S'Nimbus Roman No9 L'
p1563
sg16
I400
sg17
g13
sg18
g13
sg19
g1156
sg21
g22
sbag7
(g8
g9
NtRp1564
(dp1565
g12
g29
sg14
S'TeXGyreHeros'
p1566
sg16
I400
sg17
g13
sg18
g13
sg19
g1157
sg21
g22
sbag7
(g8
g9
NtRp1567
(dp1568
g12
g29
sg14
S'LMMonoLt10'
p1569
sg16
I200
sg17
g13
sg18
g13
sg19
g1158
sg21
g22
sbag7
(g8
g9
NtRp1570
(dp1571
g12
g13
sg14
S'LMMonoPropLt10'
p1572
sg16
I200
sg17
g13
sg18
g13
sg19
g1159
sg21
g22
sbag7
(g8
g9
NtRp1573
(dp1574
g12
g13
sg14
S'Nimbus Roman No9 L'
p1575
sg16
I400
sg17
g13
sg18
g13
sg19
g1160
sg21
g22
sbag7
(g8
g9
NtRp1576
(dp1577
g12
g29
sg14
S'Courier 10 Pitch'
p1578
sg16
I700
sg17
g13
sg18
g13
sg19
g1161
sg21
g22
sbag7
(g8
g9
NtRp1579
(dp1580
g12
g13
sg14
S'Standard Symbols L'
p1581
sg16
I400
sg17
g13
sg18
g13
sg19
g1162
sg21
g22
sbag7
(g8
g9
NtRp1582
(dp1583
g12
g13
sg14
S'Nimbus Roman No9 L'
p1584
sg16
I700
sg17
g13
sg18
g13
sg19
g1163
sg21
g22
sbag7
(g8
g9
NtRp1585
(dp1586
g12
g29
sg14
S'URW Palladio L'
p1587
sg16
I700
sg17
g13
sg18
g13
sg19
g1164
sg21
g22
sbag7
(g8
g9
NtRp1588
(dp1589
g12
g29
sg14
S'TeXGyreTermes'
p1590
sg16
I400
sg17
g13
sg18
g13
sg19
g1165
sg21
g22
sbag7
(g8
g9
NtRp1591
(dp1592
g12
g13
sg14
S'TeXGyreBonum'
p1593
sg16
I700
sg17
g13
sg18
g13
sg19
g1166
sg21
g22
sbag7
(g8
g9
NtRp1594
(dp1595
g12
g13
sg14
S'Century Schoolbook L'
p1596
sg16
I500
sg17
g13
sg18
g13
sg19
g1167
sg21
g22
sbag7
(g8
g9
NtRp1597
(dp1598
g12
g13
sg14
S'TeXGyreTermes'
p1599
sg16
I400
sg17
g13
sg18
g13
sg19
g1168
sg21
g22
sbag7
(g8
g9
NtRp1600
(dp1601
g12
g13
sg14
S'LMMonoCaps10'
p1602
sg16
I400
sg17
g13
sg18
g13
sg19
g1169
sg21
g22
sbag7
(g8
g9
NtRp1603
(dp1604
g12
g29
sg14
S'LMRomanCaps10'
p1605
sg16
I400
sg17
g13
sg18
g13
sg19
g1170
sg21
g22
sbag7
(g8
g9
NtRp1606
(dp1607
g12
g13
sg14
S'TeXGyreAdventor'
p1608
sg16
I700
sg17
g13
sg18
g13
sg19
g1171
sg21
g22
sbag7
(g8
g9
NtRp1609
(dp1610
g12
g29
sg14
S'Bitstream Charter'
p1611
sg16
I700
sg17
g13
sg18
g13
sg19
g1172
sg21
g22
sbag7
(g8
g9
NtRp1612
(dp1613
g12
g29
sg14
S'LMMonoProp10'
p1614
sg16
I400
sg17
g13
sg18
g13
sg19
g1173
sg21
g22
sbag7
(g8
g9
NtRp1615
(dp1616
g12
g13
sg14
S'LMSans10'
p1617
sg16
I400
sg17
g13
sg18
g13
sg19
g1174
sg21
g22
sbag7
(g8
g9
NtRp1618
(dp1619
g12
g13
sg14
S'LMMonoProp10'
p1620
sg16
I400
sg17
g13
sg18
g13
sg19
g1175
sg21
g22
sbag7
(g8
g9
NtRp1621
(dp1622
g12
g29
sg14
S'URW Bookman L'
p1623
sg16
I700
sg17
g13
sg18
g13
sg19
g1176
sg21
g22
sbag7
(g8
g9
NtRp1624
(dp1625
g12
g29
sg14
S'LMRomanDunh10'
p1626
sg16
I400
sg17
g13
sg18
g13
sg19
g1177
sg21
g22
sbag7
(g8
g9
NtRp1627
(dp1628
g12
g29
sg14
S'TeXGyreTermes'
p1629
sg16
I700
sg17
g13
sg18
g13
sg19
g1178
sg21
g22
sbag7
(g8
g9
NtRp1630
(dp1631
g12
g29
sg14
S'TeXGyreSchola'
p1632
sg16
I400
sg17
g13
sg18
g13
sg19
g1179
sg21
g22
sbag7
(g8
g9
NtRp1633
(dp1634
g12
g13
sg14
S'Nimbus Mono L'
p1635
sg16
I700
sg17
g13
sg18
g13
sg19
g1180
sg21
g22
sbag7
(g8
g9
NtRp1636
(dp1637
g12
g29
sg14
S'TeXGyreHerosCondensed'
p1638
sg16
I700
sg17
g208
sg18
g13
sg19
g1182
sg21
g22
sbag7
(g8
g9
NtRp1639
(dp1640
g12
g29
sg14
S'LMRoman10'
p1641
sg16
I400
sg17
g13
sg18
g13
sg19
g1183
sg21
g22
sbag7
(g8
g9
NtRp1642
(dp1643
g12
g13
sg14
S'LMRoman10'
p1644
sg16
I400
sg17
g13
sg18
g13
sg19
g1185
sg21
g22
sbag7
(g8
g9
NtRp1645
(dp1646
g12
g29
sg14
S'Bitstream Charter'
p1647
sg16
I400
sg17
g13
sg18
g13
sg19
g1186
sg21
g22
sbag7
(g8
g9
NtRp1648
(dp1649
g12
g13
sg14
S'LMMonoLt10'
p1650
sg16
I200
sg17
g13
sg18
g13
sg19
g1187
sg21
g22
sbag7
(g8
g9
NtRp1651
(dp1652
g12
g29
sg14
S'TeXGyrePagella'
p1653
sg16
I400
sg17
g13
sg18
g13
sg19
g1188
sg21
g22
sbag7
(g8
g9
NtRp1654
(dp1655
g12
g29
sg14
S'TeXGyreAdventor'
p1656
sg16
I700
sg17
g13
sg18
g13
sg19
g1189
sg21
g22
sbag7
(g8
g9
NtRp1657
(dp1658
g12
g13
sg14
S'TeXGyreHerosCondensed'
p1659
sg16
I400
sg17
g208
sg18
g13
sg19
g1190
sg21
g22
sbag7
(g8
g9
NtRp1660
(dp1661
g12
g29
sg14
S'LMMonoLtCond10'
p1662
sg16
I200
sg17
g208
sg18
g13
sg19
g1191
sg21
g22
sbag7
(g8
g9
NtRp1663
(dp1664
g12
g13
sg14
S'Century Schoolbook L'
p1665
sg16
I700
sg17
g13
sg18
g13
sg19
g1192
sg21
g22
sbag7
(g8
g9
NtRp1666
(dp1667
g12
g13
sg14
S'TeXGyrePagella'
p1668
sg16
I700
sg17
g13
sg18
g13
sg19
g1193
sg21
g22
sbag7
(g8
g9
NtRp1669
(dp1670
g12
g13
sg14
S'Nimbus Sans L'
p1671
sg16
I700
sg17
g208
sg18
g13
sg19
g1194
sg21
g22
sbag7
(g8
g9
NtRp1672
(dp1673
g12
g13
sg14
S'Nimbus Mono L'
p1674
sg16
I400
sg17
g13
sg18
g13
sg19
g1195
sg21
g22
sbag7
(g8
g9
NtRp1675
(dp1676
g12
g29
sg14
S'URW Gothic L'
p1677
sg16
I400
sg17
g13
sg18
g13
sg19
g1196
sg21
g22
sbag7
(g8
g9
NtRp1678
(dp1679
g12
g29
sg14
S'LMMonoPropLt10'
p1680
sg16
I700
sg17
g13
sg18
g13
sg19
g1197
sg21
g22
sbag7
(g8
g9
NtRp1681
(dp1682
g12
g29
sg14
S'Century Schoolbook L'
p1683
sg16
I400
sg17
g13
sg18
g13
sg19
g1198
sg21
g22
sbag7
(g8
g9
NtRp1684
(dp1685
g12
g29
sg14
S'TeXGyreCursor'
p1686
sg16
I400
sg17
g13
sg18
g13
sg19
g1199
sg21
g22
sbag7
(g8
g9
NtRp1687
(dp1688
g12
g29
sg14
S'Nimbus Sans L'
p1689
sg16
I700
sg17
g208
sg18
g13
sg19
g1200
sg21
g22
sbag7
(g8
g9
NtRp1690
(dp1691
g12
g29
sg14
S'Courier 10 Pitch'
p1692
sg16
I400
sg17
g13
sg18
g13
sg19
g1201
sg21
g22
sbag7
(g8
g9
NtRp1693
(dp1694
g12
g13
sg14
S'LMSansQuot8'
p1695
sg16
I400
sg17
g13
sg18
g13
sg19
g1202
sg21
g22
sbag7
(g8
g9
NtRp1696
(dp1697
g12
g29
sg14
S'LMSans10'
p1698
sg16
I700
sg17
g13
sg18
g13
sg19
g1203
sg21
g22
sbag7
(g8
g9
NtRp1699
(dp1700
g12
g13
sg14
S'TeXGyreAdventor'
p1701
sg16
I400
sg17
g13
sg18
g13
sg19
g1204
sg21
g22
sbag7
(g8
g9
NtRp1702
(dp1703
g12
g13
sg14
S'Nimbus Sans L'
p1704
sg16
I400
sg17
g208
sg18
g13
sg19
g1205
sg21
g22
sbag7
(g8
g9
NtRp1705
(dp1706
g12
g29
sg14
S'Nimbus Sans L'
p1707
sg16
I400
sg17
g13
sg18
g13
sg19
g1206
sg21
g22
sbag7
(g8
g9
NtRp1708
(dp1709
g12
g29
sg14
S'LMMonoLt10'
p1710
sg16
I700
sg17
g13
sg18
g13
sg19
g1207
sg21
g22
sbag7
(g8
g9
NtRp1711
(dp1712
g12
g29
sg14
S'LMSans10'
p1713
sg16
I400
sg17
g13
sg18
g13
sg19
g1208
sg21
g22
sbag7
(g8
g9
NtRp1714
(dp1715
g12
g29
sg14
S'LMRomanDemi10'
p1716
sg16
I600
sg17
g13
sg18
g13
sg19
g1209
sg21
g22
sbag7
(g8
g9
NtRp1717
(dp1718
g12
g29
sg14
S'URW Palladio L'
p1719
sg16
I400
sg17
g13
sg18
g13
sg19
g1210
sg21
g22
sbag7
(g8
g9
NtRp1720
(dp1721
g12
g29
sg14
S'TeXGyrePagella'
p1722
sg16
I700
sg17
g13
sg18
g13
sg19
g1211
sg21
g22
sbag7
(g8
g9
NtRp1723
(dp1724
g12
g13
sg14
S'LMSansDemiCond10'
p1725
sg16
I600
sg17
g208
sg18
g13
sg19
g1212
sg21
g22
sbag7
(g8
g9
NtRp1726
(dp1727
g12
g29
sg14
S'LMMonoSlant10'
p1728
sg16
I400
sg17
g13
sg18
g13
sg19
g1213
sg21
g22
sbag7
(g8
g9
NtRp1729
(dp1730
g12
g29
sg14
S'Nimbus Mono L'
p1731
sg16
I400
sg17
g13
sg18
g13
sg19
g1214
sg21
g22
sbag7
(g8
g9
NtRp1732
(dp1733
g12
g29
sg14
S'TeXGyreHerosCondensed'
p1734
sg16
I400
sg17
g208
sg18
g13
sg19
g1215
sg21
g22
sbag7
(g8
g9
NtRp1735
(dp1736
g12
g29
sg14
S'URW Gothic L'
p1737
sg16
I600
sg17
g13
sg18
g13
sg19
g1216
sg21
g22
sbag7
(g8
g9
NtRp1738
(dp1739
g12
g29
sg14
S'TeXGyreBonum'
p1740
sg16
I400
sg17
g13
sg18
g13
sg19
g1217
sg21
g22
sbag7
(g8
g9
NtRp1741
(dp1742
g12
g13
sg14
S'Bitstream Charter'
p1743
sg16
I700
sg17
g13
sg18
g13
sg19
g1218
sg21
g22
sbag7
(g8
g9
NtRp1744
(dp1745
g12
g13
sg14
S'LMRomanUnsl10'
p1746
sg16
I400
sg17
g13
sg18
g13
sg19
g1219
sg21
g22
sbasb.